
UnitZeroZero.elf:     file format elf32-avr

Sections:
Idx Name          Size      VMA       LMA       File off  Algn
  0 .data         00000024  00800100  00000e56  00000eea  2**0
                  CONTENTS, ALLOC, LOAD, DATA
  1 .text         00000e56  00000000  00000000  00000094  2**1
                  CONTENTS, ALLOC, LOAD, READONLY, CODE
  2 .bss          00000051  00800124  00800124  00000f0e  2**0
                  ALLOC
  3 .debug_aranges 000000a0  00000000  00000000  00000f0e  2**0
                  CONTENTS, READONLY, DEBUGGING
  4 .debug_pubnames 00000302  00000000  00000000  00000fae  2**0
                  CONTENTS, READONLY, DEBUGGING
  5 .debug_info   000013ff  00000000  00000000  000012b0  2**0
                  CONTENTS, READONLY, DEBUGGING
  6 .debug_abbrev 000006ef  00000000  00000000  000026af  2**0
                  CONTENTS, READONLY, DEBUGGING
  7 .debug_line   000010f4  00000000  00000000  00002d9e  2**0
                  CONTENTS, READONLY, DEBUGGING
  8 .debug_frame  000001c0  00000000  00000000  00003e94  2**2
                  CONTENTS, READONLY, DEBUGGING
  9 .debug_str    00000427  00000000  00000000  00004054  2**0
                  CONTENTS, READONLY, DEBUGGING
 10 .debug_loc    00000f3a  00000000  00000000  0000447b  2**0
                  CONTENTS, READONLY, DEBUGGING

Disassembly of section .text:

00000000 <__vectors>:
   0:	0c 94 6d 00 	jmp	0xda	; 0xda <__ctors_end>
   4:	0c 94 8a 00 	jmp	0x114	; 0x114 <__bad_interrupt>
   8:	0c 94 8a 00 	jmp	0x114	; 0x114 <__bad_interrupt>
   c:	0c 94 8a 00 	jmp	0x114	; 0x114 <__bad_interrupt>
  10:	0c 94 8a 00 	jmp	0x114	; 0x114 <__bad_interrupt>
  14:	0c 94 8a 00 	jmp	0x114	; 0x114 <__bad_interrupt>
  18:	0c 94 8a 00 	jmp	0x114	; 0x114 <__bad_interrupt>
  1c:	0c 94 8a 00 	jmp	0x114	; 0x114 <__bad_interrupt>
  20:	0c 94 8a 00 	jmp	0x114	; 0x114 <__bad_interrupt>
  24:	0c 94 8a 00 	jmp	0x114	; 0x114 <__bad_interrupt>
  28:	0c 94 8a 00 	jmp	0x114	; 0x114 <__bad_interrupt>
  2c:	0c 94 8a 00 	jmp	0x114	; 0x114 <__bad_interrupt>
  30:	0c 94 8a 00 	jmp	0x114	; 0x114 <__bad_interrupt>
  34:	0c 94 f4 00 	jmp	0x1e8	; 0x1e8 <__vector_13>
  38:	0c 94 8a 00 	jmp	0x114	; 0x114 <__bad_interrupt>
  3c:	0c 94 8a 00 	jmp	0x114	; 0x114 <__bad_interrupt>
  40:	0c 94 c7 00 	jmp	0x18e	; 0x18e <__vector_16>
  44:	0c 94 8a 00 	jmp	0x114	; 0x114 <__bad_interrupt>
  48:	0c 94 8a 00 	jmp	0x114	; 0x114 <__bad_interrupt>
  4c:	0c 94 8a 00 	jmp	0x114	; 0x114 <__bad_interrupt>
  50:	0c 94 8a 00 	jmp	0x114	; 0x114 <__bad_interrupt>
  54:	0c 94 8a 00 	jmp	0x114	; 0x114 <__bad_interrupt>
  58:	0c 94 8a 00 	jmp	0x114	; 0x114 <__bad_interrupt>
  5c:	0c 94 8a 00 	jmp	0x114	; 0x114 <__bad_interrupt>
  60:	0c 94 8a 00 	jmp	0x114	; 0x114 <__bad_interrupt>
  64:	0c 94 8a 00 	jmp	0x114	; 0x114 <__bad_interrupt>
  68:	0c 94 8a 00 	jmp	0x114	; 0x114 <__bad_interrupt>
  6c:	0c 94 8a 00 	jmp	0x114	; 0x114 <__bad_interrupt>
  70:	0c 94 8a 00 	jmp	0x114	; 0x114 <__bad_interrupt>
  74:	0c 94 8a 00 	jmp	0x114	; 0x114 <__bad_interrupt>
  78:	0c 94 8a 00 	jmp	0x114	; 0x114 <__bad_interrupt>

0000007c <lut_arc8>:
  7c:	03 06 09 0c 10 13 16 19 1c 1f 22 25 28 2b 2e 31     .........."%(+.1
  8c:	33 36 39 3c 3f 41 44 47 49 4c 4e 51 53 55 58 5a     369<?ADGILNQSUXZ
  9c:	5c 5e 60 62 64 66 68 6a 6b 6d 6f 70 71 73 74 75     \^`bdfhjkmopqstu
  ac:	76 78 79 7a 7a 7b 7c 7d 7d 7e 7e 7e 7f 7f 7f        vxyzz{|}}~~~...

000000bb <lut_tan8>:
  bb:	03 06 09 0d 10 13 16 19 1d 20 23 27 2a 2d 31 35     ......... #'*-15
  cb:	38 3c 40 44 48 4c 50 55 59 5e 63 68 6e 73 79        8<@DHLPUY^chnsy

000000da <__ctors_end>:
  da:	11 24       	eor	r1, r1
  dc:	1f be       	out	0x3f, r1	; 63
  de:	cf ef       	ldi	r28, 0xFF	; 255
  e0:	d8 e0       	ldi	r29, 0x08	; 8
  e2:	de bf       	out	0x3e, r29	; 62
  e4:	cd bf       	out	0x3d, r28	; 61

000000e6 <__do_copy_data>:
  e6:	11 e0       	ldi	r17, 0x01	; 1
  e8:	a0 e0       	ldi	r26, 0x00	; 0
  ea:	b1 e0       	ldi	r27, 0x01	; 1
  ec:	e6 e5       	ldi	r30, 0x56	; 86
  ee:	fe e0       	ldi	r31, 0x0E	; 14
  f0:	02 c0       	rjmp	.+4      	; 0xf6 <.do_copy_data_start>

000000f2 <.do_copy_data_loop>:
  f2:	05 90       	lpm	r0, Z+
  f4:	0d 92       	st	X+, r0

000000f6 <.do_copy_data_start>:
  f6:	a4 32       	cpi	r26, 0x24	; 36
  f8:	b1 07       	cpc	r27, r17
  fa:	d9 f7       	brne	.-10     	; 0xf2 <.do_copy_data_loop>

000000fc <__do_clear_bss>:
  fc:	11 e0       	ldi	r17, 0x01	; 1
  fe:	a4 e2       	ldi	r26, 0x24	; 36
 100:	b1 e0       	ldi	r27, 0x01	; 1
 102:	01 c0       	rjmp	.+2      	; 0x106 <.do_clear_bss_start>

00000104 <.do_clear_bss_loop>:
 104:	1d 92       	st	X+, r1

00000106 <.do_clear_bss_start>:
 106:	a5 37       	cpi	r26, 0x75	; 117
 108:	b1 07       	cpc	r27, r17
 10a:	e1 f7       	brne	.-8      	; 0x104 <.do_clear_bss_loop>
 10c:	0e 94 6e 02 	call	0x4dc	; 0x4dc <main>
 110:	0c 94 29 07 	jmp	0xe52	; 0xe52 <_exit>

00000114 <__bad_interrupt>:
 114:	0c 94 00 00 	jmp	0	; 0x0 <__vectors>

00000118 <timer0_init>:

	///**********************************************************************
	///	CONTROL REGISTER WRITEBACK
	///**********************************************************************

	TCCR0A = tccr0a_temp;
 118:	82 e0       	ldi	r24, 0x02	; 2
 11a:	84 bd       	out	0x24, r24	; 36
	TCCR0B = tccr0b_temp;
 11c:	93 e0       	ldi	r25, 0x03	; 3
 11e:	95 bd       	out	0x25, r25	; 37
	TIMSK0 = timsk0_temp;
 120:	80 93 6e 00 	sts	0x006E, r24

	OCR0A = 48;
 124:	80 e3       	ldi	r24, 0x30	; 48
 126:	87 bd       	out	0x27, r24	; 39
	OCR0B = 0;
 128:	18 bc       	out	0x28, r1	; 40
			
	return;
}	//end function: timer0_initialisation
 12a:	08 95       	ret

0000012c <timer1_init>:

	//***********************************************************************
	//	REGISTER WRITE-BACK
	//***********************************************************************
	
	OCR1A 	= 0xffff;
 12c:	8f ef       	ldi	r24, 0xFF	; 255
 12e:	9f ef       	ldi	r25, 0xFF	; 255
 130:	90 93 89 00 	sts	0x0089, r25
 134:	80 93 88 00 	sts	0x0088, r24

	OCR1B	= 0;
 138:	10 92 8b 00 	sts	0x008B, r1
 13c:	10 92 8a 00 	sts	0x008A, r1

	ICR1 	= 0;
 140:	10 92 87 00 	sts	0x0087, r1
 144:	10 92 86 00 	sts	0x0086, r1
	
	TCCR1A = tccr1a_temp;
 148:	10 92 80 00 	sts	0x0080, r1
	TCCR1B = tccr1b_temp;
 14c:	88 e0       	ldi	r24, 0x08	; 8
 14e:	80 93 81 00 	sts	0x0081, r24
	TCCR1C = tccr1c_temp;
 152:	10 92 82 00 	sts	0x0082, r1
	TIMSK1 = timsk1_temp;
 156:	82 e0       	ldi	r24, 0x02	; 2
 158:	80 93 6f 00 	sts	0x006F, r24

	return;
}	//end function: timer1_initialisation
 15c:	08 95       	ret

0000015e <global_init>:
	//PA3			:
	//PA4			:
	//PA5			:
	//PA6			:
	//PA7			:
	PORT_A_CONFIG('R','R','R','R','R','R','R','R');
 15e:	9f ef       	ldi	r25, 0xFF	; 255
 160:	92 b9       	out	0x02, r25	; 2
 162:	11 b8       	out	0x01, r1	; 1
	//PB3			: Servo 3
	//PB4			: Servo 4
	//PB5			: Servo 5
	//PB6			:
	//PB7			:
	PORT_B_CONFIG('L','L','L','L','L','L','R','R');
 164:	80 ec       	ldi	r24, 0xC0	; 192
 166:	85 b9       	out	0x05, r24	; 5
 168:	8f e3       	ldi	r24, 0x3F	; 63
 16a:	84 b9       	out	0x04, r24	; 4
	//PC3			: LCD_RS
	//PC4			: LCD_D4
	//PC5			: LCD_D5
	//PC6			: LCD_D6
	//PC7			: LCD_D7
	PORT_C_CONFIG('H','H','L','L','L','L','L','L');
 16c:	23 e0       	ldi	r18, 0x03	; 3
 16e:	28 b9       	out	0x08, r18	; 8
 170:	97 b9       	out	0x07, r25	; 7
	//PD3			:
	//PD4			:
	//PD5			:
	//PD6			:
	//PD7			:
	PORT_D_CONFIG('R','R','R','R','R','R','R','R');
 172:	9b b9       	out	0x0b, r25	; 11
 174:	1a b8       	out	0x0a, r1	; 10

	///**********************************************************************
	///	CONTROL REGISTER WRITEBACK
	///**********************************************************************

	TCCR0A = tccr0a_temp;
 176:	82 e0       	ldi	r24, 0x02	; 2
 178:	84 bd       	out	0x24, r24	; 36
	TCCR0B = tccr0b_temp;
 17a:	25 bd       	out	0x25, r18	; 37
	TIMSK0 = timsk0_temp;
 17c:	80 93 6e 00 	sts	0x006E, r24

	OCR0A = 48;
 180:	80 e3       	ldi	r24, 0x30	; 48
 182:	87 bd       	out	0x27, r24	; 39
	OCR0B = 0;
 184:	18 bc       	out	0x28, r1	; 40
	///**********************************************************************

	//100Hz time base
	timer0_init();
	//Precise delay for the servos
	timer1_init();
 186:	0e 94 96 00 	call	0x12c	; 0x12c <timer1_init>
	///	start of any ISR and engaged again at it's bottom to avoid slow nested ISR call,
	///	if you need nested ISR call then call sei() at the beginning of the ISR
	///	TIPS: the function to disable all the interrupt is "cli()"
	///**********************************************************************

	sei();
 18a:	78 94       	sei

	return;
}	//end function: global_initialisation
 18c:	08 95       	ret

0000018e <__vector_16>:
*****************************************************************************
**	Timing routine called at 156uS
****************************************************************************/

ISR( TIMER0_COMPA_vect )
{
 18e:	1f 92       	push	r1
 190:	0f 92       	push	r0
 192:	0f b6       	in	r0, 0x3f	; 63
 194:	0f 92       	push	r0
 196:	11 24       	eor	r1, r1
 198:	8f 93       	push	r24
 19a:	9f 93       	push	r25
	//***********************************************************************
	//	PRESCALER
	//***********************************************************************

	//Update LCD display (156.8uS)
	f.lcd = 1;
 19c:	80 91 41 01 	lds	r24, 0x0141
 1a0:	84 60       	ori	r24, 0x04	; 4
 1a2:	80 93 41 01 	sts	0x0141, r24
	
	//20.07mS code
	if ((cnt & 0x7f) == 0x7f)
 1a6:	90 91 24 01 	lds	r25, 0x0124
 1aa:	89 2f       	mov	r24, r25
 1ac:	8f 77       	andi	r24, 0x7F	; 127
 1ae:	8f 37       	cpi	r24, 0x7F	; 127
 1b0:	51 f4       	brne	.+20     	; 0x1c6 <__vector_16+0x38>
	{
		//rise pwm flag
		f.mot = 1;
 1b2:	80 91 41 01 	lds	r24, 0x0141
 1b6:	81 60       	ori	r24, 0x01	; 1
 1b8:	80 93 41 01 	sts	0x0141, r24
		//update global servo time
		servo_global_time++;
 1bc:	80 91 52 01 	lds	r24, 0x0152
 1c0:	8f 5f       	subi	r24, 0xFF	; 255
 1c2:	80 93 52 01 	sts	0x0152, r24
	}

	if ((cnt & 0xff) == 0xff)
 1c6:	9f 3f       	cpi	r25, 0xFF	; 255
 1c8:	29 f4       	brne	.+10     	; 0x1d4 <__vector_16+0x46>
	{
		f.x = 1;
 1ca:	80 91 41 01 	lds	r24, 0x0141
 1ce:	88 60       	ori	r24, 0x08	; 8
 1d0:	80 93 41 01 	sts	0x0141, r24
	}

	//increase counter
	cnt++;
 1d4:	9f 5f       	subi	r25, 0xFF	; 255
 1d6:	90 93 24 01 	sts	0x0124, r25

	//***********************************************************************
	//	RETURN
	//***********************************************************************
}
 1da:	9f 91       	pop	r25
 1dc:	8f 91       	pop	r24
 1de:	0f 90       	pop	r0
 1e0:	0f be       	out	0x3f, r0	; 63
 1e2:	0f 90       	pop	r0
 1e4:	1f 90       	pop	r1
 1e6:	18 95       	reti

000001e8 <__vector_13>:
**	This function is a controlled delay used to generate the servos signals
**
****************************************************************************/

ISR( TIMER1_COMPA_vect )
{
 1e8:	1f 92       	push	r1
 1ea:	0f 92       	push	r0
 1ec:	0f b6       	in	r0, 0x3f	; 63
 1ee:	0f 92       	push	r0
 1f0:	11 24       	eor	r1, r1
 1f2:	1f 93       	push	r17
 1f4:	2f 93       	push	r18
 1f6:	3f 93       	push	r19
 1f8:	4f 93       	push	r20
 1fa:	5f 93       	push	r21
 1fc:	6f 93       	push	r22
 1fe:	7f 93       	push	r23
 200:	8f 93       	push	r24
 202:	9f 93       	push	r25
 204:	af 93       	push	r26
 206:	bf 93       	push	r27
 208:	ef 93       	push	r30
 20a:	ff 93       	push	r31
	//	>If not valid
	//		>stop Timer 1
	//	>write back status var

	//activity: ON
	CLEAR_BIT( PORTC, 0 );
 20c:	40 98       	cbi	0x08, 0	; 8
	//fetch status var
	cnt = servo_cnt;
 20e:	10 91 4b 01 	lds	r17, 0x014B
	//If i still have a pending servo, pull it down
	if (cnt < N_SERVOS)
 212:	16 30       	cpi	r17, 0x06	; 6
 214:	08 f5       	brcc	.+66     	; 0x258 <__vector_13+0x70>
	{
		//pull down line
		CLEAR_BIT( PORTB, cnt );
 216:	25 b1       	in	r18, 0x05	; 5
 218:	41 e0       	ldi	r20, 0x01	; 1
 21a:	50 e0       	ldi	r21, 0x00	; 0
 21c:	ca 01       	movw	r24, r20
 21e:	01 2e       	mov	r0, r17
 220:	02 c0       	rjmp	.+4      	; 0x226 <__vector_13+0x3e>
 222:	88 0f       	add	r24, r24
 224:	99 1f       	adc	r25, r25
 226:	0a 94       	dec	r0
 228:	e2 f7       	brpl	.-8      	; 0x222 <__vector_13+0x3a>
 22a:	80 95       	com	r24
 22c:	82 23       	and	r24, r18
 22e:	85 b9       	out	0x05, r24	; 5
		//next servo
		cnt++;
 230:	1f 5f       	subi	r17, 0xFF	; 255
	}
	//If i still have servos to do, set the next one up
	if (cnt < N_SERVOS)
 232:	16 30       	cpi	r17, 0x06	; 6
 234:	89 f0       	breq	.+34     	; 0x258 <__vector_13+0x70>
	{
		//pull up line
		SET_BIT( PORTB, cnt );
 236:	85 b1       	in	r24, 0x05	; 5
 238:	01 2e       	mov	r0, r17
 23a:	02 c0       	rjmp	.+4      	; 0x240 <__vector_13+0x58>
 23c:	44 0f       	add	r20, r20
 23e:	55 1f       	adc	r21, r21
 240:	0a 94       	dec	r0
 242:	e2 f7       	brpl	.-8      	; 0x23c <__vector_13+0x54>
 244:	84 2b       	or	r24, r20
 246:	85 b9       	out	0x05, r24	; 5
		//calculate delay (position and times are global variabiles, it's an interpolator)
		delay 			= servo_calc_delay( cnt );
 248:	81 2f       	mov	r24, r17
 24a:	0e 94 4b 01 	call	0x296	; 0x296 <servo_calc_delay>
		//Store delay on T1
		OCR1A 			= delay;
 24e:	90 93 89 00 	sts	0x0089, r25
 252:	80 93 88 00 	sts	0x0088, r24
 256:	0a c0       	rjmp	.+20     	; 0x26c <__vector_13+0x84>
	}
	//If: i did the last servo
	else
	{
		//stop the timer, i'm done
		STOP_TIMER1();
 258:	80 91 81 00 	lds	r24, 0x0081
 25c:	8e 7f       	andi	r24, 0xFE	; 254
 25e:	80 93 81 00 	sts	0x0081, r24
		//It is now safe tu update the servo global vars
		f.safe = 1;
 262:	80 91 41 01 	lds	r24, 0x0141
 266:	80 61       	ori	r24, 0x10	; 16
 268:	80 93 41 01 	sts	0x0141, r24
	}
	//write back status var
	servo_cnt = cnt;
 26c:	10 93 4b 01 	sts	0x014B, r17
	//activity: OFF
	SET_BIT( PORTC, 0 );
 270:	40 9a       	sbi	0x08, 0	; 8

	//***********************************************************************
	//	RETURN
	//***********************************************************************
}
 272:	ff 91       	pop	r31
 274:	ef 91       	pop	r30
 276:	bf 91       	pop	r27
 278:	af 91       	pop	r26
 27a:	9f 91       	pop	r25
 27c:	8f 91       	pop	r24
 27e:	7f 91       	pop	r23
 280:	6f 91       	pop	r22
 282:	5f 91       	pop	r21
 284:	4f 91       	pop	r20
 286:	3f 91       	pop	r19
 288:	2f 91       	pop	r18
 28a:	1f 91       	pop	r17
 28c:	0f 90       	pop	r0
 28e:	0f be       	out	0x3f, r0	; 63
 290:	0f 90       	pop	r0
 292:	1f 90       	pop	r1
 294:	18 95       	reti

00000296 <servo_calc_delay>:
**	T recalculation
**	t must be 0 < t < DeltaT to do the calculations
****************************************************************************/

U16 servo_calc_delay( U8 index )
{
 296:	bf 92       	push	r11
 298:	cf 92       	push	r12
 29a:	df 92       	push	r13
 29c:	ef 92       	push	r14
 29e:	ff 92       	push	r15
 2a0:	0f 93       	push	r16
 2a2:	1f 93       	push	r17
 2a4:	cf 93       	push	r28
 2a6:	df 93       	push	r29
	//		>ERROR (happen when Ts == Te but Xs != Xe, i have 2 points in the same temporal slot)

	//clear flags
	flags 	= 0x00;
	//global time
	gt 		= servo_global_time;
 2a8:	30 91 52 01 	lds	r19, 0x0152
	//get servo reference time
	t[0] 	= SERVO_TIME( 0, index );
 2ac:	c8 2f       	mov	r28, r24
 2ae:	d0 e0       	ldi	r29, 0x00	; 0
 2b0:	fe 01       	movw	r30, r28
 2b2:	eb 5c       	subi	r30, 0xCB	; 203
 2b4:	fe 4f       	sbci	r31, 0xFE	; 254
 2b6:	b0 80       	ld	r11, Z
	t[1]	= SERVO_TIME( 1, index );
 2b8:	66 e0       	ldi	r22, 0x06	; 6
 2ba:	e6 2e       	mov	r14, r22
 2bc:	f1 2c       	mov	r15, r1
 2be:	ec 0e       	add	r14, r28
 2c0:	fd 1e       	adc	r15, r29
 2c2:	f7 01       	movw	r30, r14
 2c4:	eb 5c       	subi	r30, 0xCB	; 203
 2c6:	fe 4f       	sbci	r31, 0xFE	; 254
 2c8:	c0 80       	ld	r12, Z
	//I put them if plus order to halve possible cases (i have to swap positions as well for this to work)
	//If: Tstart > Tend
	if (t[0] > t[1])
 2ca:	cb 14       	cp	r12, r11
 2cc:	20 f4       	brcc	.+8      	; 0x2d6 <servo_calc_delay+0x40>
 2ce:	4b 2d       	mov	r20, r11
 2d0:	9c 2d       	mov	r25, r12
 2d2:	12 e0       	ldi	r17, 0x02	; 2
 2d4:	03 c0       	rjmp	.+6      	; 0x2dc <servo_calc_delay+0x46>
 2d6:	4c 2d       	mov	r20, r12
 2d8:	9b 2d       	mov	r25, r11
 2da:	10 e0       	ldi	r17, 0x00	; 0
		t[1] = u8t;
		//Signal that the positions needs to be swapped
		SET_BIT( flags, 1 );
	}
	//fetch servo vars, i handle swaps with a flag
	x[0] 	= SERVO_POS( 0, index );
 2dc:	fe 01       	movw	r30, r28
 2de:	e7 5d       	subi	r30, 0xD7	; 215
 2e0:	fe 4f       	sbci	r31, 0xFE	; 254
 2e2:	d0 80       	ld	r13, Z
	x[1] 	= SERVO_POS( 1, index );
 2e4:	f7 01       	movw	r30, r14
 2e6:	e7 5d       	subi	r30, 0xD7	; 215
 2e8:	fe 4f       	sbci	r31, 0xFE	; 254
 2ea:	00 81       	ld	r16, Z
		///Handle special cases
	//handle DELTAX == 0
	if (x[0] == x[1])
 2ec:	d0 16       	cp	r13, r16
 2ee:	21 f4       	brne	.+8      	; 0x2f8 <servo_calc_delay+0x62>
		//If starting and end position are the same:
		//I have no interpolation to do irregarding to all others time vars
		//I use x[0]
		//TOGGLE_BIT( flags, 1);
		//If: DT == 0 it means that the interpolator is idle
		if (t[0] == t[1])
 2f0:	94 17       	cp	r25, r20
 2f2:	69 f4       	brne	.+26     	; 0x30e <servo_calc_delay+0x78>
		{
			//this servo is idle
			SET_BIT( flags, 3 );
 2f4:	18 60       	ori	r17, 0x08	; 8
 2f6:	0b c0       	rjmp	.+22     	; 0x30e <servo_calc_delay+0x78>
		}
	}
	//handle DELTAT == 0
	else if (t[0] == t[1])
 2f8:	94 17       	cp	r25, r20
 2fa:	31 f0       	breq	.+12     	; 0x308 <servo_calc_delay+0x72>
		SET_BIT( flags, 2 );
		//this servo is idle
		SET_BIT( flags, 3 );
	}
	//exactly on start
	else if (t[0] == gt)
 2fc:	93 17       	cp	r25, r19
 2fe:	39 f0       	breq	.+14     	; 0x30e <servo_calc_delay+0x78>
	{
		//I use x[0]
		//SET_BIT( flags, 1);
	}
	//exactly on end
	else if (t[1] == gt)
 300:	43 17       	cp	r20, r19
 302:	21 f4       	brne	.+8      	; 0x30c <servo_calc_delay+0x76>
	{
		//I use ending x as position (no interpolation needed)
		TOGGLE_BIT( flags, 1);
 304:	82 e0       	ldi	r24, 0x02	; 2
 306:	18 27       	eor	r17, r24
		//I ended the interpolation, i will write ending time and position in the starting one
		SET_BIT( flags, 2 );
		//this servo is idle
		SET_BIT( flags, 3 );
 308:	1c 60       	ori	r17, 0x0C	; 12
 30a:	01 c0       	rjmp	.+2      	; 0x30e <servo_calc_delay+0x78>
	}
	//i'm done with special cases, all others are time dependent
	else
	{
		//Enable temporal calculations
		SET_BIT( flags, 0);
 30c:	11 60       	ori	r17, 0x01	; 1
	//		>Calculate time dependent delay K1*X
	//	>Calculate delay
	//		>D = K0 + K1*Xoff+D(t,x)

	//If: temporal calculations are enabled
	if (IS_BIT_ONE( flags, 0 ))
 30e:	10 ff       	sbrs	r17, 0
 310:	8d c0       	rjmp	.+282    	; 0x42c <servo_calc_delay+0x196>
		//	[Ts Te t]	gt is after servo time
		//		>t = gt -Te
		//		>DT = 2^8 -Te +Ts

		//if: global time is inside servo time [Ts t Te]
		if ((gt > t[0]) && (gt < t[1]))
 312:	93 17       	cp	r25, r19
 314:	38 f4       	brcc	.+14     	; 0x324 <servo_calc_delay+0x8e>
 316:	34 17       	cp	r19, r20
 318:	28 f4       	brcc	.+10     	; 0x324 <servo_calc_delay+0x8e>
		{
			//t = t - Ts
			gt = gt - t[0];
 31a:	53 2f       	mov	r21, r19
 31c:	59 1b       	sub	r21, r25
			//DeltaT = Te - Ts
			t[0] = t[1] - t[0];
 31e:	64 2f       	mov	r22, r20
 320:	69 1b       	sub	r22, r25
 322:	08 c0       	rjmp	.+16     	; 0x334 <servo_calc_delay+0x9e>
 324:	23 2f       	mov	r18, r19
 326:	24 1b       	sub	r18, r20
 328:	89 2f       	mov	r24, r25
 32a:	84 1b       	sub	r24, r20
		}
		//if: global time is after servo time [Ts Te t]
		else
		{
			//t = t - Te
			gt = gt - t[1];
 32c:	52 2f       	mov	r21, r18
			//DeltaT = 2^8 - Te + Ts
			t[0] = 255 - t[1] +1 + t[0];
 32e:	68 2f       	mov	r22, r24
			//I need to swap the positions
			TOGGLE_BIT( flags, 1 );
 330:	82 e0       	ldi	r24, 0x02	; 2
 332:	18 27       	eor	r17, r24
		//	it is bounded [0,1] i multiply by 256 to keep it within an U8
		//	this var is used by the interpolator
		//	i round the result toward even to increase resolution

		//calculate NUM
		u16t = (U16)256 * gt;
 334:	35 2f       	mov	r19, r21
 336:	20 e0       	ldi	r18, 0x00	; 0
		//divide and obtain unrounded result
		u8t = (U8)0 + u16t/t[0];
 338:	e6 2f       	mov	r30, r22
 33a:	f0 e0       	ldi	r31, 0x00	; 0
 33c:	c9 01       	movw	r24, r18
 33e:	bf 01       	movw	r22, r30
 340:	0e 94 02 07 	call	0xe04	; 0xe04 <__udivmodhi4>
		//i have to do: 2*num -2*res*gt, if this quantity is bigger than gt -> i round up, if the quantity is equal and the result is odd -> i round up
		u16t = 2*(u16t-u8t*t[0]);
 344:	46 2f       	mov	r20, r22
 346:	50 e0       	ldi	r21, 0x00	; 0
 348:	4e 9f       	mul	r20, r30
 34a:	c0 01       	movw	r24, r0
 34c:	4f 9f       	mul	r20, r31
 34e:	90 0d       	add	r25, r0
 350:	5e 9f       	mul	r21, r30
 352:	90 0d       	add	r25, r0
 354:	11 24       	eor	r1, r1
 356:	28 1b       	sub	r18, r24
 358:	39 0b       	sbc	r19, r25
 35a:	22 0f       	add	r18, r18
 35c:	33 1f       	adc	r19, r19
		//if the 2*residual is bigger then divisor (DT)
		if (u16t > t[0])
 35e:	e2 17       	cp	r30, r18
 360:	f3 07       	cpc	r31, r19
 362:	20 f0       	brcs	.+8      	; 0x36c <servo_calc_delay+0xd6>
		{
			//round up
			u8t++;
		}
		//if the 2*residual is equal to the divisor (DT) AND the unrounded result is ODD
		else if ((u16t == t[0]) && (u8t & 0x01))
 364:	2e 17       	cp	r18, r30
 366:	3f 07       	cpc	r19, r31
 368:	11 f4       	brne	.+4      	; 0x36e <servo_calc_delay+0xd8>
 36a:	60 fd       	sbrc	r22, 0
		{
			//round up (round toward even ex: 217.5 -> 218, 216.5 -> 216)
			u8t++;
 36c:	6f 5f       	subi	r22, 0xFF	; 255
		//	Dx = K1 * [ Xs * (256 - KT) / 256 + Xe * (KT) / 256 ]
		//	vars:
		//	Xs: x[0], Xe: x[0], DT: t[0], KT: t[1]

		//if: i need to swap positions
		if (IS_BIT_ONE( flags, 1))
 36e:	11 fd       	sbrc	r17, 1
		{
			//i am better off complementing kt, i get the same result without an additional S8 temp var
			t[1] = 255 - t[1] +1;
 370:	61 95       	neg	r22
		}
		//u16t = 127 * K1;

		//calc Xs * (2^8 - Kt) + Xe * (Kt)
		s16t = x[0] * (255 - t[1] +1) + x[1] * t[1];
 372:	46 2f       	mov	r20, r22
 374:	50 e0       	ldi	r21, 0x00	; 0
 376:	80 e0       	ldi	r24, 0x00	; 0
 378:	91 e0       	ldi	r25, 0x01	; 1
 37a:	84 1b       	sub	r24, r20
 37c:	95 0b       	sbc	r25, r21
 37e:	2d 2d       	mov	r18, r13
 380:	33 27       	eor	r19, r19
 382:	27 fd       	sbrc	r18, 7
 384:	30 95       	com	r19
 386:	82 9f       	mul	r24, r18
 388:	b0 01       	movw	r22, r0
 38a:	83 9f       	mul	r24, r19
 38c:	70 0d       	add	r23, r0
 38e:	92 9f       	mul	r25, r18
 390:	70 0d       	add	r23, r0
 392:	11 24       	eor	r1, r1
 394:	80 2f       	mov	r24, r16
 396:	99 27       	eor	r25, r25
 398:	87 fd       	sbrc	r24, 7
 39a:	90 95       	com	r25
 39c:	9c 01       	movw	r18, r24
 39e:	42 9f       	mul	r20, r18
 3a0:	c0 01       	movw	r24, r0
 3a2:	43 9f       	mul	r20, r19
 3a4:	90 0d       	add	r25, r0
 3a6:	52 9f       	mul	r21, r18
 3a8:	90 0d       	add	r25, r0
 3aa:	11 24       	eor	r1, r1
 3ac:	68 0f       	add	r22, r24
 3ae:	79 1f       	adc	r23, r25
		//divide by 2^8 and round the result, corrected for negative numerators
		s16t = AT_DIVIDE_NEG_RTO( s16t, 8 );
 3b0:	77 fd       	sbrc	r23, 7
 3b2:	15 c0       	rjmp	.+42     	; 0x3de <servo_calc_delay+0x148>
 3b4:	67 ff       	sbrs	r22, 7
 3b6:	0e c0       	rjmp	.+28     	; 0x3d4 <servo_calc_delay+0x13e>
 3b8:	87 2f       	mov	r24, r23
 3ba:	99 27       	eor	r25, r25
 3bc:	87 fd       	sbrc	r24, 7
 3be:	9a 95       	dec	r25
 3c0:	6f 77       	andi	r22, 0x7F	; 127
 3c2:	70 70       	andi	r23, 0x00	; 0
 3c4:	67 2b       	or	r22, r23
 3c6:	19 f0       	breq	.+6      	; 0x3ce <servo_calc_delay+0x138>
 3c8:	dc 01       	movw	r26, r24
 3ca:	11 96       	adiw	r26, 0x01	; 1
 3cc:	3a c0       	rjmp	.+116    	; 0x442 <servo_calc_delay+0x1ac>
 3ce:	dc 01       	movw	r26, r24
 3d0:	a1 60       	ori	r26, 0x01	; 1
 3d2:	37 c0       	rjmp	.+110    	; 0x442 <servo_calc_delay+0x1ac>
 3d4:	a7 2f       	mov	r26, r23
 3d6:	bb 27       	eor	r27, r27
 3d8:	a7 fd       	sbrc	r26, 7
 3da:	ba 95       	dec	r27
 3dc:	32 c0       	rjmp	.+100    	; 0x442 <servo_calc_delay+0x1ac>
 3de:	88 27       	eor	r24, r24
 3e0:	99 27       	eor	r25, r25
 3e2:	86 1b       	sub	r24, r22
 3e4:	97 0b       	sbc	r25, r23
 3e6:	87 ff       	sbrs	r24, 7
 3e8:	1a c0       	rjmp	.+52     	; 0x41e <servo_calc_delay+0x188>
 3ea:	8f 77       	andi	r24, 0x7F	; 127
 3ec:	90 70       	andi	r25, 0x00	; 0
 3ee:	89 2b       	or	r24, r25
 3f0:	41 f0       	breq	.+16     	; 0x402 <servo_calc_delay+0x16c>
 3f2:	cb 01       	movw	r24, r22
 3f4:	60 e0       	ldi	r22, 0x00	; 0
 3f6:	71 e0       	ldi	r23, 0x01	; 1
 3f8:	0e 94 16 07 	call	0xe2c	; 0xe2c <__divmodhi4>
 3fc:	db 01       	movw	r26, r22
 3fe:	11 97       	sbiw	r26, 0x01	; 1
 400:	20 c0       	rjmp	.+64     	; 0x442 <servo_calc_delay+0x1ac>
 402:	cb 01       	movw	r24, r22
 404:	60 e0       	ldi	r22, 0x00	; 0
 406:	71 e0       	ldi	r23, 0x01	; 1
 408:	0e 94 16 07 	call	0xe2c	; 0xe2c <__divmodhi4>
 40c:	70 95       	com	r23
 40e:	61 95       	neg	r22
 410:	7f 4f       	sbci	r23, 0xFF	; 255
 412:	61 60       	ori	r22, 0x01	; 1
 414:	aa 27       	eor	r26, r26
 416:	bb 27       	eor	r27, r27
 418:	a6 1b       	sub	r26, r22
 41a:	b7 0b       	sbc	r27, r23
 41c:	12 c0       	rjmp	.+36     	; 0x442 <servo_calc_delay+0x1ac>
 41e:	cb 01       	movw	r24, r22
 420:	60 e0       	ldi	r22, 0x00	; 0
 422:	71 e0       	ldi	r23, 0x01	; 1
 424:	0e 94 16 07 	call	0xe2c	; 0xe2c <__divmodhi4>
 428:	db 01       	movw	r26, r22
 42a:	0b c0       	rjmp	.+22     	; 0x442 <servo_calc_delay+0x1ac>
		//-----------------------------------------------------------------------
		//	CALCULATE POSITION DEPENDENT DELAY
		//-----------------------------------------------------------------------

		//If: i use x[1]
		if (IS_BIT_ONE( flags, 1))
 42c:	11 ff       	sbrs	r17, 1
 42e:	05 c0       	rjmp	.+10     	; 0x43a <servo_calc_delay+0x1a4>
		{
			s16t = x[1];
 430:	a0 2f       	mov	r26, r16
 432:	bb 27       	eor	r27, r27
 434:	a7 fd       	sbrc	r26, 7
 436:	b0 95       	com	r27
 438:	04 c0       	rjmp	.+8      	; 0x442 <servo_calc_delay+0x1ac>
		}
		//If: i use x[0]
		else
		{
			s16t = x[0];
 43a:	ad 2d       	mov	r26, r13
 43c:	bb 27       	eor	r27, r27
 43e:	a7 fd       	sbrc	r26, 7
 440:	b0 95       	com	r27
	//-----------------------------------------------------------------------
	//	CALCULATE POSITION INDEPENDENT DELAY
	//-----------------------------------------------------------------------
	
	//K0 is the neutral delay, the offset is meant to compensate for mechanical misalignement
	d = K0 + K1 * SERVO_OFFSET( index ) + s16t;
 442:	fe 01       	movw	r30, r28
 444:	e0 5f       	subi	r30, 0xF0	; 240
 446:	fe 4f       	sbci	r31, 0xFE	; 254
 448:	30 81       	ld	r19, Z
	//-----------------------------------------------------------------------
	//	CALCULATE POSITION INDEPENDENT DELAY
	//-----------------------------------------------------------------------

	//If: end frame was executed
	if (IS_BIT_ONE( flags, 2 ))
 44a:	81 2f       	mov	r24, r17
 44c:	12 ff       	sbrs	r17, 2
 44e:	15 c0       	rjmp	.+42     	; 0x47a <servo_calc_delay+0x1e4>
	{
		//I copy the ending position in the servo global vars
		//If: ending position was x[1]
		if (IS_BIT_ONE( flags, 1 ))
 450:	11 ff       	sbrs	r17, 1
 452:	09 c0       	rjmp	.+18     	; 0x466 <servo_calc_delay+0x1d0>
		{
			SERVO_POS( 0, index ) = x[1];
 454:	fe 01       	movw	r30, r28
 456:	e7 5d       	subi	r30, 0xD7	; 215
 458:	fe 4f       	sbci	r31, 0xFE	; 254
 45a:	00 83       	st	Z, r16
			SERVO_TIME( 0, index ) = SERVO_TIME( 1, index );
 45c:	fe 01       	movw	r30, r28
 45e:	eb 5c       	subi	r30, 0xCB	; 203
 460:	fe 4f       	sbci	r31, 0xFE	; 254
 462:	c0 82       	st	Z, r12
 464:	0a c0       	rjmp	.+20     	; 0x47a <servo_calc_delay+0x1e4>
		}
		//If: ending position was x[0], i end up here if Ts was bigger than Te
		else
		{
			//should not happen during normal operation, but in case of creative use of the interpolator i handle this special case
			SERVO_POS( 1, index ) = x[0];
 466:	f7 01       	movw	r30, r14
 468:	e7 5d       	subi	r30, 0xD7	; 215
 46a:	fe 4f       	sbci	r31, 0xFE	; 254
 46c:	d0 82       	st	Z, r13
			SERVO_TIME( 1, index ) = SERVO_TIME( 0, index );
 46e:	45 e3       	ldi	r20, 0x35	; 53
 470:	51 e0       	ldi	r21, 0x01	; 1
 472:	e4 0e       	add	r14, r20
 474:	f5 1e       	adc	r15, r21
 476:	f7 01       	movw	r30, r14
 478:	b0 82       	st	Z, r11
		}
	}

	//If: the servo is idle after this operation
	if (IS_BIT_ONE( flags, 3 ))
 47a:	83 ff       	sbrs	r24, 3
 47c:	0c c0       	rjmp	.+24     	; 0x496 <servo_calc_delay+0x200>
	{
		//signal that the servo is now idle
		SET_BIT( servo_idle, index );
 47e:	20 91 53 01 	lds	r18, 0x0153
 482:	81 e0       	ldi	r24, 0x01	; 1
 484:	90 e0       	ldi	r25, 0x00	; 0
 486:	02 c0       	rjmp	.+4      	; 0x48c <servo_calc_delay+0x1f6>
 488:	88 0f       	add	r24, r24
 48a:	99 1f       	adc	r25, r25
 48c:	ca 95       	dec	r28
 48e:	e2 f7       	brpl	.-8      	; 0x488 <servo_calc_delay+0x1f2>
 490:	28 2b       	or	r18, r24
 492:	20 93 53 01 	sts	0x0153, r18
 496:	83 2f       	mov	r24, r19
 498:	99 27       	eor	r25, r25
 49a:	87 fd       	sbrc	r24, 7
 49c:	90 95       	com	r25
 49e:	4e e8       	ldi	r20, 0x8E	; 142
 4a0:	50 e0       	ldi	r21, 0x00	; 0
 4a2:	84 9f       	mul	r24, r20
 4a4:	90 01       	movw	r18, r0
 4a6:	85 9f       	mul	r24, r21
 4a8:	30 0d       	add	r19, r0
 4aa:	94 9f       	mul	r25, r20
 4ac:	30 0d       	add	r19, r0
 4ae:	11 24       	eor	r1, r1
 4b0:	20 5d       	subi	r18, 0xD0	; 208
 4b2:	3a 48       	sbci	r19, 0x8A	; 138
 4b4:	a4 9f       	mul	r26, r20
 4b6:	c0 01       	movw	r24, r0
 4b8:	a5 9f       	mul	r26, r21
 4ba:	90 0d       	add	r25, r0
 4bc:	b4 9f       	mul	r27, r20
 4be:	90 0d       	add	r25, r0
 4c0:	11 24       	eor	r1, r1
 4c2:	28 0f       	add	r18, r24
 4c4:	39 1f       	adc	r19, r25
	//***********************************************************************
	//	RETURN
	//***********************************************************************

	return d;
}	//end function: servo_calc_delay
 4c6:	c9 01       	movw	r24, r18
 4c8:	df 91       	pop	r29
 4ca:	cf 91       	pop	r28
 4cc:	1f 91       	pop	r17
 4ce:	0f 91       	pop	r16
 4d0:	ff 90       	pop	r15
 4d2:	ef 90       	pop	r14
 4d4:	df 90       	pop	r13
 4d6:	cf 90       	pop	r12
 4d8:	bf 90       	pop	r11
 4da:	08 95       	ret

000004dc <main>:
/****************************************************************************
**	MAIN
****************************************************************************/

int main( void )
{
 4dc:	df 92       	push	r13
 4de:	ef 92       	push	r14
 4e0:	ff 92       	push	r15
 4e2:	0f 93       	push	r16
 4e4:	1f 93       	push	r17
 4e6:	cf 93       	push	r28
 4e8:	df 93       	push	r29
	///**********************************************************************
	///	 INITIALISATION
	///**********************************************************************

	//
	f.safe 				= 0;
 4ea:	80 91 41 01 	lds	r24, 0x0141
 4ee:	8f 7e       	andi	r24, 0xEF	; 239
 4f0:	80 93 41 01 	sts	0x0141, r24
	//
	servo_idle 			= 0x00;
 4f4:	10 92 53 01 	sts	0x0153, r1
	servo_next_idle		= 0x00;
	//Initialize status var to disabled
	servo_cnt 			= N_SERVOS;
 4f8:	86 e0       	ldi	r24, 0x06	; 6
 4fa:	80 93 4b 01 	sts	0x014B, r24
	//Clear global servo time
	servo_global_time 	= 0;
 4fe:	10 92 52 01 	sts	0x0152, r1
 502:	c9 e2       	ldi	r28, 0x29	; 41
 504:	d1 e0       	ldi	r29, 0x01	; 1
 506:	a5 e3       	ldi	r26, 0x35	; 53
 508:	b1 e0       	ldi	r27, 0x01	; 1
 50a:	80 e0       	ldi	r24, 0x00	; 0
 50c:	90 e0       	ldi	r25, 0x00	; 0
	//Initialize servo position to zero (offset is accounted for during calculations, i must not add it here)
	for (u8t = 0;u8t < N_SERVOS;u8t++)
	{
		//Initialize start and end positions
		SERVO_POS( 0, u8t ) 	= 0;
 50e:	18 82       	st	Y, r1
		SERVO_POS( 1, u8t ) 	= 0;
 510:	1e 82       	std	Y+6, r1	; 0x06
		//Initialize start and end times (REMEMBER to set them, DT = 0 when DX != 0  is an error when ISR scan)
		SERVO_TIME( 0, u8t ) 	= 0;
 512:	1c 92       	st	X, r1
		SERVO_TIME( 1, u8t ) 	= 0;
 514:	16 96       	adiw	r26, 0x06	; 6
 516:	1c 92       	st	X, r1
 518:	16 97       	sbiw	r26, 0x06	; 6
		//initialize next frame buffer
		servo_next_pos[ u8t ] 	= 0;
 51a:	fc 01       	movw	r30, r24
 51c:	e4 5b       	subi	r30, 0xB4	; 180
 51e:	fe 4f       	sbci	r31, 0xFE	; 254
 520:	10 82       	st	Z, r1
		servo_next_time[ u8t ] 	= 0;
 522:	fc 01       	movw	r30, r24
 524:	ed 5b       	subi	r30, 0xBD	; 189
 526:	fe 4f       	sbci	r31, 0xFE	; 254
 528:	10 82       	st	Z, r1
 52a:	01 96       	adiw	r24, 0x01	; 1
 52c:	21 96       	adiw	r28, 0x01	; 1
 52e:	11 96       	adiw	r26, 0x01	; 1
	//Initialize status var to disabled
	servo_cnt 			= N_SERVOS;
	//Clear global servo time
	servo_global_time 	= 0;
	//Initialize servo position to zero (offset is accounted for during calculations, i must not add it here)
	for (u8t = 0;u8t < N_SERVOS;u8t++)
 530:	86 30       	cpi	r24, 0x06	; 6
 532:	91 05       	cpc	r25, r1
 534:	61 f7       	brne	.-40     	; 0x50e <main+0x32>
	///**********************************************************************
	///	PHERIPERALS INITIALISATION
	///**********************************************************************

	//Initialize devices
	global_init();
 536:	0e 94 af 00 	call	0x15e	; 0x15e <global_init>
 53a:	80 ed       	ldi	r24, 0xD0	; 208
 53c:	97 e0       	ldi	r25, 0x07	; 7
    milliseconds can be achieved.
 */
void
_delay_loop_2(uint16_t __count)
{
	__asm__ volatile (
 53e:	24 ef       	ldi	r18, 0xF4	; 244
 540:	31 e0       	ldi	r19, 0x01	; 1
 542:	f9 01       	movw	r30, r18
 544:	31 97       	sbiw	r30, 0x01	; 1
 546:	f1 f7       	brne	.-4      	; 0x544 <main+0x68>
		__ticks = (uint16_t) (__ms * 10.0);
		while(__ticks)
		{
			// wait 1/10 ms
			_delay_loop_2(((F_CPU) / 4e3) / 10);
			__ticks --;
 548:	01 97       	sbiw	r24, 0x01	; 1
		__ticks = 1;
	else if (__tmp > 65535)
	{
		//	__ticks = requested delay in 1/10 ms
		__ticks = (uint16_t) (__ms * 10.0);
		while(__ticks)
 54a:	d9 f7       	brne	.-10     	; 0x542 <main+0x66>
	//Give time for the display to go offline (from previous down)
	_delay_ms( 200.0 );
	//Get the LCD display on line
	LCD_ON();
 54c:	41 98       	cbi	0x08, 1	; 8
 54e:	80 ed       	ldi	r24, 0xD0	; 208
 550:	97 e0       	ldi	r25, 0x07	; 7
 552:	24 ef       	ldi	r18, 0xF4	; 244
 554:	31 e0       	ldi	r19, 0x01	; 1
 556:	f9 01       	movw	r30, r18
 558:	31 97       	sbiw	r30, 0x01	; 1
 55a:	f1 f7       	brne	.-4      	; 0x558 <main+0x7c>
		{
			// wait 1/10 ms
			_delay_loop_2(((F_CPU) / 4e3) / 10);
			__ticks --;
 55c:	01 97       	sbiw	r24, 0x01	; 1
		__ticks = 1;
	else if (__tmp > 65535)
	{
		//	__ticks = requested delay in 1/10 ms
		__ticks = (uint16_t) (__ms * 10.0);
		while(__ticks)
 55e:	d9 f7       	brne	.-10     	; 0x556 <main+0x7a>
	//Give time for the display to load
	_delay_ms( 200.0 );
	//Initialize display
	display_initialisation();
 560:	0e 94 0b 05 	call	0xa16	; 0xa16 <display_initialisation>
 564:	80 ed       	ldi	r24, 0xD0	; 208
 566:	97 e0       	ldi	r25, 0x07	; 7
 568:	24 ef       	ldi	r18, 0xF4	; 244
 56a:	31 e0       	ldi	r19, 0x01	; 1
 56c:	f9 01       	movw	r30, r18
 56e:	31 97       	sbiw	r30, 0x01	; 1
 570:	f1 f7       	brne	.-4      	; 0x56e <main+0x92>
		{
			// wait 1/10 ms
			_delay_loop_2(((F_CPU) / 4e3) / 10);
			__ticks --;
 572:	01 97       	sbiw	r24, 0x01	; 1
		__ticks = 1;
	else if (__tmp > 65535)
	{
		//	__ticks = requested delay in 1/10 ms
		__ticks = (uint16_t) (__ms * 10.0);
		while(__ticks)
 574:	d9 f7       	brne	.-10     	; 0x56c <main+0x90>
	//Wait for good measure, i'm in no rush
	_delay_ms( 200.0 );
	//The proud name of this unit
	print_str( 0, 0, (U8 *)"Unit Zero Zero");
 576:	80 e0       	ldi	r24, 0x00	; 0
 578:	60 e0       	ldi	r22, 0x00	; 0
 57a:	40 e0       	ldi	r20, 0x00	; 0
 57c:	51 e0       	ldi	r21, 0x01	; 1
 57e:	0e 94 da 05 	call	0xbb4	; 0xbb4 <print_str>
 582:	10 e0       	ldi	r17, 0x00	; 0
			servo_next_idle 	= u8t;
			//For: all servos
			for (u8t1 = 0; u8t1 < N_SERVOS;u8t1++)
			{
				//If: if the servo end frame need to be updated
				if (IS_BIT_ONE( u8t, u8t1 ))
 584:	e1 e0       	ldi	r30, 0x01	; 1
 586:	ee 2e       	mov	r14, r30
 588:	f1 2c       	mov	r15, r1
					else
					{
						servo_next_pos[u8t1]= 0;
					}

					servo_next_time[ u8t1 ] = 50;
 58a:	72 e3       	ldi	r23, 0x32	; 50
 58c:	d7 2e       	mov	r13, r23
				if (IS_BIT_ONE( u8t, u8t1 ))
				{
					//request a new trajectory point
					if (servo_next_pos[u8t1]== 0)
					{
						servo_next_pos[u8t1]= 20;
 58e:	04 e1       	ldi	r16, 0x14	; 20
	///	MAIN LOOP
	///**********************************************************************

	for EVER
	{
		if (f.x == 1)
 590:	80 91 41 01 	lds	r24, 0x0141
 594:	83 ff       	sbrs	r24, 3
 596:	05 c0       	rjmp	.+10     	; 0x5a2 <main+0xc6>
		{
			f.x = 0;
 598:	80 91 41 01 	lds	r24, 0x0141
 59c:	87 7f       	andi	r24, 0xF7	; 247
 59e:	80 93 41 01 	sts	0x0141, r24
		//	LCD DIPSPLAY UPDATE
		//-----------------------------------------------------------------------
		//	This routine update the display
		
		//Issued every 156.8uS
		if (f.lcd == 1)
 5a2:	80 91 41 01 	lds	r24, 0x0141
 5a6:	82 ff       	sbrs	r24, 2
 5a8:	09 c0       	rjmp	.+18     	; 0x5bc <main+0xe0>
		{
			f.lcd = 0;
 5aa:	80 91 41 01 	lds	r24, 0x0141
 5ae:	8b 7f       	andi	r24, 0xFB	; 251
 5b0:	80 93 41 01 	sts	0x0141, r24
			//activity: ON
			CLEAR_BIT( PORTC, 0 );
 5b4:	40 98       	cbi	0x08, 0	; 8
			//Update display
			display_update();
 5b6:	0e 94 18 05 	call	0xa30	; 0xa30 <display_update>
			//activity: OFF
			SET_BIT( PORTC, 0 );
 5ba:	40 9a       	sbi	0x08, 0	; 8
		//	>calculate first delay, pull down first line
		//	>setup first delay, enable [Timer 1]
		//	>Timer 1 ISR will handle the update of the servos and disable it self when done

		//Issued every 20.07mS
		if (f.mot == 1)
 5bc:	80 91 41 01 	lds	r24, 0x0141
 5c0:	80 ff       	sbrs	r24, 0
 5c2:	1b c0       	rjmp	.+54     	; 0x5fa <main+0x11e>
		{
			//clear flag
			f.mot 			= 0;
 5c4:	80 91 41 01 	lds	r24, 0x0141
 5c8:	8e 7f       	andi	r24, 0xFE	; 254
 5ca:	80 93 41 01 	sts	0x0141, r24
			//activity: ON
			CLEAR_BIT( PORTC, 0 );
 5ce:	40 98       	cbi	0x08, 0	; 8
			//clear status var
			servo_cnt 		= 0;
 5d0:	10 92 4b 01 	sts	0x014B, r1
			u8t 			= 0;
			//force safe flag to 0, it is unsafe now to update the servo vars
			f.safe 			= 0;
 5d4:	80 91 41 01 	lds	r24, 0x0141
 5d8:	8f 7e       	andi	r24, 0xEF	; 239
 5da:	80 93 41 01 	sts	0x0141, r24
			//calculate delay
			delay 			= servo_calc_delay( 0 );
 5de:	80 e0       	ldi	r24, 0x00	; 0
 5e0:	0e 94 4b 01 	call	0x296	; 0x296 <servo_calc_delay>
			//Store delay on T1
			OCR1A 			= delay;
 5e4:	90 93 89 00 	sts	0x0089, r25
 5e8:	80 93 88 00 	sts	0x0088, r24
			//start T1
			START_TIMER1();
 5ec:	80 91 81 00 	lds	r24, 0x0081
 5f0:	81 60       	ori	r24, 0x01	; 1
 5f2:	80 93 81 00 	sts	0x0081, r24
			//pull up first line
			SET_BIT( PORTB, 0 );
 5f6:	28 9a       	sbi	0x05, 0	; 5
			//activity: OFF
			SET_BIT( PORTC, 0 );
 5f8:	40 9a       	sbi	0x08, 0	; 8
		//	The interpolator fully executed a movement
		//	I load one set of futures values from the buffer and signal that new values have to be generated
		//	i use a mobile mask scan to handle the update

		//If: it's safe to write into the global servo vars AND at least one servo require instructions
		if ((f.safe == 1) && (servo_idle != 0x00))
 5fa:	80 91 41 01 	lds	r24, 0x0141
 5fe:	84 ff       	sbrs	r24, 4
 600:	2e c0       	rjmp	.+92     	; 0x65e <main+0x182>
 602:	80 91 53 01 	lds	r24, 0x0153
 606:	88 23       	and	r24, r24
 608:	51 f1       	breq	.+84     	; 0x65e <main+0x182>
		{
			//move the global var to a local one for speed
			u8t 				= servo_idle;
 60a:	10 91 53 01 	lds	r17, 0x0153
 60e:	cf e2       	ldi	r28, 0x2F	; 47
 610:	d1 e0       	ldi	r29, 0x01	; 1
 612:	ab e3       	ldi	r26, 0x3B	; 59
 614:	b1 e0       	ldi	r27, 0x01	; 1
 616:	40 e0       	ldi	r20, 0x00	; 0
 618:	50 e0       	ldi	r21, 0x00	; 0
			servo_next_idle 	= u8t;
			//For: all servos
			for (u8t1 = 0; u8t1 < N_SERVOS;u8t1++)
			{
				//If: if the servo end frame need to be updated
				if (IS_BIT_ONE( u8t, u8t1 ))
 61a:	61 2f       	mov	r22, r17
 61c:	70 e0       	ldi	r23, 0x00	; 0
 61e:	97 01       	movw	r18, r14
 620:	04 2e       	mov	r0, r20
 622:	02 c0       	rjmp	.+4      	; 0x628 <main+0x14c>
 624:	22 0f       	add	r18, r18
 626:	33 1f       	adc	r19, r19
 628:	0a 94       	dec	r0
 62a:	e2 f7       	brpl	.-8      	; 0x624 <main+0x148>
 62c:	c9 01       	movw	r24, r18
 62e:	86 23       	and	r24, r22
 630:	97 23       	and	r25, r23
 632:	82 17       	cp	r24, r18
 634:	93 07       	cpc	r25, r19
 636:	51 f4       	brne	.+20     	; 0x64c <main+0x170>
				{
					//fill the end position with the new one
					SERVO_POS( 1, u8t1 )	= servo_next_pos[ u8t1 ];
 638:	fa 01       	movw	r30, r20
 63a:	e4 5b       	subi	r30, 0xB4	; 180
 63c:	fe 4f       	sbci	r31, 0xFE	; 254
 63e:	80 81       	ld	r24, Z
 640:	88 83       	st	Y, r24
					SERVO_TIME( 1, u8t1 )	= servo_next_time[ u8t1 ];
 642:	fa 01       	movw	r30, r20
 644:	ed 5b       	subi	r30, 0xBD	; 189
 646:	fe 4f       	sbci	r31, 0xFE	; 254
 648:	80 81       	ld	r24, Z
 64a:	8c 93       	st	X, r24
 64c:	4f 5f       	subi	r20, 0xFF	; 255
 64e:	5f 4f       	sbci	r21, 0xFF	; 255
 650:	21 96       	adiw	r28, 0x01	; 1
 652:	11 96       	adiw	r26, 0x01	; 1
			//move the global var to a local one for speed
			u8t 				= servo_idle;
			//The trajector
			servo_next_idle 	= u8t;
			//For: all servos
			for (u8t1 = 0; u8t1 < N_SERVOS;u8t1++)
 654:	46 30       	cpi	r20, 0x06	; 6
 656:	51 05       	cpc	r21, r1
 658:	11 f7       	brne	.-60     	; 0x61e <main+0x142>
					SERVO_POS( 1, u8t1 )	= servo_next_pos[ u8t1 ];
					SERVO_TIME( 1, u8t1 )	= servo_next_time[ u8t1 ];
				}
			}
			//I'm done
			servo_idle 		= 0x00;
 65a:	10 92 53 01 	sts	0x0153, r1
		//-----------------------------------------------------------------------
		//	TRAJECTORY GENERATION
		//-----------------------------------------------------------------------
		
		//If: some elements from the buffer have been used
		if (servo_next_idle != 0x00)
 65e:	11 23       	and	r17, r17
 660:	09 f4       	brne	.+2      	; 0x664 <main+0x188>
 662:	96 cf       	rjmp	.-212    	; 0x590 <main+0xb4>
 664:	ac e4       	ldi	r26, 0x4C	; 76
 666:	b1 e0       	ldi	r27, 0x01	; 1
 668:	40 e0       	ldi	r20, 0x00	; 0
 66a:	50 e0       	ldi	r21, 0x00	; 0
			u8t = servo_next_idle;
			//For: all servos
			for (u8t1 = 0; u8t1 < N_SERVOS;u8t1++)
			{
				//If the servo need a new buffer
				if (IS_BIT_ONE( u8t, u8t1 ))
 66c:	61 2f       	mov	r22, r17
 66e:	70 e0       	ldi	r23, 0x00	; 0
 670:	97 01       	movw	r18, r14
 672:	04 2e       	mov	r0, r20
 674:	02 c0       	rjmp	.+4      	; 0x67a <main+0x19e>
 676:	22 0f       	add	r18, r18
 678:	33 1f       	adc	r19, r19
 67a:	0a 94       	dec	r0
 67c:	e2 f7       	brpl	.-8      	; 0x676 <main+0x19a>
 67e:	c9 01       	movw	r24, r18
 680:	86 23       	and	r24, r22
 682:	97 23       	and	r25, r23
 684:	82 17       	cp	r24, r18
 686:	93 07       	cpc	r25, r19
 688:	51 f4       	brne	.+20     	; 0x69e <main+0x1c2>
				{
					//request a new trajectory point
					if (servo_next_pos[u8t1]== 0)
 68a:	8c 91       	ld	r24, X
 68c:	88 23       	and	r24, r24
 68e:	11 f4       	brne	.+4      	; 0x694 <main+0x1b8>
					{
						servo_next_pos[u8t1]= 20;
 690:	0c 93       	st	X, r16
 692:	01 c0       	rjmp	.+2      	; 0x696 <main+0x1ba>

					}
					else
					{
						servo_next_pos[u8t1]= 0;
 694:	1c 92       	st	X, r1
					}

					servo_next_time[ u8t1 ] = 50;
 696:	fa 01       	movw	r30, r20
 698:	ed 5b       	subi	r30, 0xBD	; 189
 69a:	fe 4f       	sbci	r31, 0xFE	; 254
 69c:	d0 82       	st	Z, r13
 69e:	4f 5f       	subi	r20, 0xFF	; 255
 6a0:	5f 4f       	sbci	r21, 0xFF	; 255
 6a2:	11 96       	adiw	r26, 0x01	; 1
		//If: some elements from the buffer have been used
		if (servo_next_idle != 0x00)
		{
			u8t = servo_next_idle;
			//For: all servos
			for (u8t1 = 0; u8t1 < N_SERVOS;u8t1++)
 6a4:	46 30       	cpi	r20, 0x06	; 6
 6a6:	51 05       	cpc	r21, r1
 6a8:	19 f7       	brne	.-58     	; 0x670 <main+0x194>
 6aa:	72 cf       	rjmp	.-284    	; 0x590 <main+0xb4>

000006ac <at_arc8>:

	///--------------------------------------------------------------------------
	///	CHECK AND INITIALIZATIONS
	///--------------------------------------------------------------------------

	if ( (fi < +0) || (fi > +63) )
 6ac:	80 34       	cpi	r24, 0x40	; 64
 6ae:	10 f0       	brcs	.+4      	; 0x6b4 <at_arc8+0x8>
 6b0:	80 e8       	ldi	r24, 0x80	; 128
 6b2:	08 95       	ret
	///--------------------------------------------------------------------------
	///	BODY
	///--------------------------------------------------------------------------
	//	here i compute the arc approximations

	ret = READ_LUT_ARC8(fi);
 6b4:	e8 2f       	mov	r30, r24
 6b6:	ff 27       	eor	r31, r31
 6b8:	e7 fd       	sbrc	r30, 7
 6ba:	f0 95       	com	r31
 6bc:	e4 58       	subi	r30, 0x84	; 132
 6be:	ff 4f       	sbci	r31, 0xFF	; 255
 6c0:	84 91       	lpm	r24, Z+
	///--------------------------------------------------------------------------
	///	RETURN
	///--------------------------------------------------------------------------

	return ret;
}
 6c2:	08 95       	ret

000006c4 <at_sin8>:
	///--------------------------------------------------------------------------
	///	CHECK AND INITIALIZATIONS
	///--------------------------------------------------------------------------

	//If the input angle is error, the output is also error
	if (fi == -128)
 6c4:	80 38       	cpi	r24, 0x80	; 128
 6c6:	01 f1       	breq	.+64     	; 0x708 <at_sin8+0x44>
	///--------------------------------------------------------------------------
	///	BODY
	///--------------------------------------------------------------------------

	//if i have the origin
	if (fi == 0)
 6c8:	88 23       	and	r24, r24
 6ca:	f1 f0       	breq	.+60     	; 0x708 <at_sin8+0x44>
		return 0;
	}

		//Compute the angle accounting for the various simmetry of sin
	//the function is odd
	if (fi < 0)
 6cc:	87 fd       	sbrc	r24, 7
 6ce:	02 c0       	rjmp	.+4      	; 0x6d4 <at_sin8+0x10>
 6d0:	90 e0       	ldi	r25, 0x00	; 0
 6d2:	02 c0       	rjmp	.+4      	; 0x6d8 <at_sin8+0x14>
	{
		sign_flag = 1;
		fi = -fi;
 6d4:	81 95       	neg	r24
 6d6:	91 e0       	ldi	r25, 0x01	; 1
	}
	//90° angle
	if (fi == 64)
 6d8:	80 34       	cpi	r24, 0x40	; 64
 6da:	11 f4       	brne	.+4      	; 0x6e0 <at_sin8+0x1c>
 6dc:	ee e3       	ldi	r30, 0x3E	; 62
 6de:	0b c0       	rjmp	.+22     	; 0x6f6 <at_sin8+0x32>
	{
		//angle that will return 127
		fi = 62;
	}
	else if (fi > 64)
 6e0:	81 34       	cpi	r24, 0x41	; 65
 6e2:	1c f0       	brlt	.+6      	; 0x6ea <at_sin8+0x26>
	{

		fi = 127-fi;
 6e4:	ef e7       	ldi	r30, 0x7F	; 127
 6e6:	e8 1b       	sub	r30, r24
 6e8:	02 c0       	rjmp	.+4      	; 0x6ee <at_sin8+0x2a>
	}
	//from +1:+63
	else
	{
		//become +0:+62 in the lut
		fi = fi -1;
 6ea:	e8 2f       	mov	r30, r24
 6ec:	e1 50       	subi	r30, 0x01	; 1

	///--------------------------------------------------------------------------
	///	CHECK AND INITIALIZATIONS
	///--------------------------------------------------------------------------

	if ( (fi < +0) || (fi > +63) )
 6ee:	e0 34       	cpi	r30, 0x40	; 64
 6f0:	10 f0       	brcs	.+4      	; 0x6f6 <at_sin8+0x32>
 6f2:	80 e8       	ldi	r24, 0x80	; 128
 6f4:	06 c0       	rjmp	.+12     	; 0x702 <at_sin8+0x3e>
	///--------------------------------------------------------------------------
	///	BODY
	///--------------------------------------------------------------------------
	//	here i compute the arc approximations

	ret = READ_LUT_ARC8(fi);
 6f6:	ff 27       	eor	r31, r31
 6f8:	e7 fd       	sbrc	r30, 7
 6fa:	f0 95       	com	r31
 6fc:	e4 58       	subi	r30, 0x84	; 132
 6fe:	ff 4f       	sbci	r31, 0xFF	; 255
 700:	84 91       	lpm	r24, Z+
	}

	//I have the modified angle, i compute the sin value
	out = at_arc8( fi );
	//I apply sign correction
	if (sign_flag == 1)
 702:	91 30       	cpi	r25, 0x01	; 1
 704:	09 f4       	brne	.+2      	; 0x708 <at_sin8+0x44>
	{
		out = -out;
 706:	81 95       	neg	r24
	///--------------------------------------------------------------------------
	///	RETURN
	///--------------------------------------------------------------------------

	return out;
}	//end function: at_sin8
 708:	08 95       	ret

0000070a <at_cos8>:
	///--------------------------------------------------------------------------
	///	CHECK AND INITIALIZATIONS
	///--------------------------------------------------------------------------

	//If the input angle is error, the output is also error
	if (fi == -128)
 70a:	80 38       	cpi	r24, 0x80	; 128
 70c:	01 f1       	breq	.+64     	; 0x74e <at_cos8+0x44>
	///--------------------------------------------------------------------------
	///	BODY
	///--------------------------------------------------------------------------

	//if i have the origin
	if (fi == 0)
 70e:	88 23       	and	r24, r24
 710:	11 f4       	brne	.+4      	; 0x716 <at_cos8+0xc>
 712:	8f e7       	ldi	r24, 0x7F	; 127
 714:	08 95       	ret
 716:	87 fd       	sbrc	r24, 7
 718:	81 95       	neg	r24
	if (fi < 0)
	{
		fi = -fi;
	}
	//90° angle
	if (fi == 64)
 71a:	80 34       	cpi	r24, 0x40	; 64
 71c:	11 f4       	brne	.+4      	; 0x722 <at_cos8+0x18>
 71e:	80 e0       	ldi	r24, 0x00	; 0
 720:	08 95       	ret
	{
		//at 90°, the cos is 0
		return 0;
	}
	//from +65:+127
	else if (fi > 64)
 722:	81 34       	cpi	r24, 0x41	; 65
 724:	24 f0       	brlt	.+8      	; 0x72e <at_cos8+0x24>
	{
		//angle > 90° return negative
		sign_flag = 1;
		//become +0:+62
		fi = fi-65;
 726:	e8 2f       	mov	r30, r24
 728:	e1 54       	subi	r30, 0x41	; 65
 72a:	91 e0       	ldi	r25, 0x01	; 1
 72c:	03 c0       	rjmp	.+6      	; 0x734 <at_cos8+0x2a>
	}
	//from +1:+63
	else
	{
		//become +62:+0 in the lut
		fi = 63 -fi;
 72e:	ef e3       	ldi	r30, 0x3F	; 63
 730:	e8 1b       	sub	r30, r24
 732:	90 e0       	ldi	r25, 0x00	; 0

	///--------------------------------------------------------------------------
	///	CHECK AND INITIALIZATIONS
	///--------------------------------------------------------------------------

	if ( (fi < +0) || (fi > +63) )
 734:	e0 34       	cpi	r30, 0x40	; 64
 736:	10 f0       	brcs	.+4      	; 0x73c <at_cos8+0x32>
 738:	80 e8       	ldi	r24, 0x80	; 128
 73a:	06 c0       	rjmp	.+12     	; 0x748 <at_cos8+0x3e>
	///--------------------------------------------------------------------------
	///	BODY
	///--------------------------------------------------------------------------
	//	here i compute the arc approximations

	ret = READ_LUT_ARC8(fi);
 73c:	ff 27       	eor	r31, r31
 73e:	e7 fd       	sbrc	r30, 7
 740:	f0 95       	com	r31
 742:	e4 58       	subi	r30, 0x84	; 132
 744:	ff 4f       	sbci	r31, 0xFF	; 255
 746:	84 91       	lpm	r24, Z+
	}

	//I have the modified angle, i compute the sin value
	out = at_arc8( fi );
	//I apply sign correction
	if (sign_flag == 1)
 748:	91 30       	cpi	r25, 0x01	; 1
 74a:	09 f4       	brne	.+2      	; 0x74e <at_cos8+0x44>
	{
		out = -out;
 74c:	81 95       	neg	r24
	///--------------------------------------------------------------------------
	///	RETURN
	///--------------------------------------------------------------------------

	return out;
}	//end function: at_sin8
 74e:	08 95       	ret

00000750 <at_tan8>:
**	>tan(fi) = 1/tan( 90° -fi )
**	I think this is the best way since it keeps fi and q the same as the others functions
****************************************************************************/

int8_t at_tan8(int8_t fi )
{
 750:	e8 2f       	mov	r30, r24
	///--------------------------------------------------------------------------
	///	CHECK AND INITIALIZATIONS
	///--------------------------------------------------------------------------

	//If: the argument is out-of-range
	if ((fi < -AT_PI4) || (fi > +AT_PI4))
 752:	80 5e       	subi	r24, 0xE0	; 224
 754:	81 34       	cpi	r24, 0x41	; 65
 756:	10 f0       	brcs	.+4      	; 0x75c <at_tan8+0xc>
 758:	80 e8       	ldi	r24, 0x80	; 128
 75a:	08 95       	ret
	{
		return AT_ERR_ANGLE;
	}

	//If: input is 0°
	if (fi == 0)
 75c:	ee 23       	and	r30, r30
 75e:	11 f4       	brne	.+4      	; 0x764 <at_tan8+0x14>
 760:	80 e0       	ldi	r24, 0x00	; 0
 762:	08 95       	ret
	///--------------------------------------------------------------------------
	///	BODY
	///--------------------------------------------------------------------------

	//tan has odd parity
	if (fi < 0)
 764:	e7 fd       	sbrc	r30, 7
 766:	02 c0       	rjmp	.+4      	; 0x76c <at_tan8+0x1c>
 768:	90 e0       	ldi	r25, 0x00	; 0
 76a:	02 c0       	rjmp	.+4      	; 0x770 <at_tan8+0x20>
	{
		//make argument positive
		fi = -fi;
 76c:	e1 95       	neg	r30
 76e:	91 e0       	ldi	r25, 0x01	; 1
		//Save the sign
		sign_flag = 1;
	}
	//If: Trival angle: +45°
	if (fi == AT_PI4)
 770:	e0 32       	cpi	r30, 0x20	; 32
 772:	11 f4       	brne	.+4      	; 0x778 <at_tan8+0x28>
 774:	8f e7       	ldi	r24, 0x7F	; 127
 776:	06 c0       	rjmp	.+12     	; 0x784 <at_tan8+0x34>
	}
	//If: all others angles
	else
	{
		//Fetch q from the lut
		q = READ_LUT_TAN8(fi -1);
 778:	ff 27       	eor	r31, r31
 77a:	e7 fd       	sbrc	r30, 7
 77c:	f0 95       	com	r31
 77e:	e6 54       	subi	r30, 0x46	; 70
 780:	ff 4f       	sbci	r31, 0xFF	; 255
 782:	84 91       	lpm	r24, Z+
	}
	//Sign correction
	if (sign_flag == 1)
 784:	91 30       	cpi	r25, 0x01	; 1
 786:	09 f4       	brne	.+2      	; 0x78a <at_tan8+0x3a>
	{
		q = -q;
 788:	81 95       	neg	r24
	///--------------------------------------------------------------------------
	///	RETURN
	///--------------------------------------------------------------------------

	return q;
}	//end function: at_tan8
 78a:	08 95       	ret

0000078c <at_aarc8>:
**	>idea0: i have a lut with all the inverse-arc value (128b)
**	>idea1: i search in the direct arc lut the value and obtain the original angle
****************************************************************************/

int8_t at_aarc8( int8_t q )
{
 78c:	38 2f       	mov	r19, r24
	///--------------------------------------------------------------------------
	///	CHECK AND INITIALIZATIONS
	///--------------------------------------------------------------------------

	//The arc function accept only positive values
	if (q < 0)
 78e:	87 ff       	sbrs	r24, 7
 790:	02 c0       	rjmp	.+4      	; 0x796 <at_aarc8+0xa>
 792:	80 e8       	ldi	r24, 0x80	; 128
 794:	08 95       	ret
	///--------------------------------------------------------------------------

	///STEP0:
	//If i have a trival value i return the angle
	//If: out = 0
	if (q == 0)
 796:	88 23       	and	r24, r24
 798:	11 f4       	brne	.+4      	; 0x79e <at_aarc8+0x12>
 79a:	80 e0       	ldi	r24, 0x00	; 0
 79c:	08 95       	ret
	{
		//fi = 0°
		return 0;
	}
	//If: out = +1
	if (q == 127)
 79e:	8f 37       	cpi	r24, 0x7F	; 127
 7a0:	11 f4       	brne	.+4      	; 0x7a6 <at_aarc8+0x1a>
 7a2:	80 e4       	ldi	r24, 0x40	; 64
 7a4:	08 95       	ret
 7a6:	ec e7       	ldi	r30, 0x7C	; 124
 7a8:	f0 e0       	ldi	r31, 0x00	; 0
 7aa:	20 e0       	ldi	r18, 0x00	; 0
	}
	///STEP1:
	//Search in the arc lut for the first value higher or equal than what i am searching
	//While:
	while
	(
 7ac:	48 2f       	mov	r20, r24
 7ae:	55 27       	eor	r21, r21
 7b0:	47 fd       	sbrc	r20, 7
 7b2:	50 95       	com	r21
 7b4:	04 c0       	rjmp	.+8      	; 0x7be <at_aarc8+0x32>
		(t < LUT_ARC8_SIZE) && 			//I have not reached the end of the lut
		(READ_LUT_ARC8(t) < q)		//I have not found a number bigger than what i am searching
	)
	{
		//check next entry
		t++;
 7b6:	2f 5f       	subi	r18, 0xFF	; 255
 7b8:	31 96       	adiw	r30, 0x01	; 1
	}
	///STEP1:
	//Search in the arc lut for the first value higher or equal than what i am searching
	//While:
	while
	(
 7ba:	2f 33       	cpi	r18, 0x3F	; 63
 7bc:	29 f0       	breq	.+10     	; 0x7c8 <at_aarc8+0x3c>
		(t < LUT_ARC8_SIZE) && 			//I have not reached the end of the lut
		(READ_LUT_ARC8(t) < q)		//I have not found a number bigger than what i am searching
 7be:	84 91       	lpm	r24, Z+
	}
	///STEP1:
	//Search in the arc lut for the first value higher or equal than what i am searching
	//While:
	while
	(
 7c0:	90 e0       	ldi	r25, 0x00	; 0
 7c2:	84 17       	cp	r24, r20
 7c4:	95 07       	cpc	r25, r21
 7c6:	bc f3       	brlt	.-18     	; 0x7b6 <at_aarc8+0x2a>
	///STEP2:
	//I have the row of the arc lut theat contain the first output equal or bigger then q
	//i have to filter the result

	//store current value
	val = READ_LUT_ARC8(t);
 7c8:	82 2f       	mov	r24, r18
 7ca:	99 27       	eor	r25, r25
 7cc:	87 fd       	sbrc	r24, 7
 7ce:	90 95       	com	r25
 7d0:	fc 01       	movw	r30, r24
 7d2:	e4 58       	subi	r30, 0x84	; 132
 7d4:	ff 4f       	sbci	r31, 0xFF	; 255
 7d6:	44 91       	lpm	r20, Z+
	//printf("index val: %d\n",val);
	//If: the Index value BIGGER then what i am searching?
	if (val > q)
 7d8:	34 17       	cp	r19, r20
 7da:	e4 f4       	brge	.+56     	; 0x814 <at_aarc8+0x88>
	{
		//Check the value before, if q is less than half-way, round down result
		//Extract prec
		if (t > 0)
 7dc:	22 23       	and	r18, r18
 7de:	11 f4       	brne	.+4      	; 0x7e4 <at_aarc8+0x58>
 7e0:	50 e0       	ldi	r21, 0x00	; 0
 7e2:	04 c0       	rjmp	.+8      	; 0x7ec <at_aarc8+0x60>
		{
			prec = READ_LUT_ARC8(t -1);
 7e4:	85 58       	subi	r24, 0x85	; 133
 7e6:	9f 4f       	sbci	r25, 0xFF	; 255
 7e8:	fc 01       	movw	r30, r24
 7ea:	54 91       	lpm	r21, Z+
		{
			prec = 0;
		}
		//printf("prec val: %d\n",prec);
		//Calculate Halfway value
		temp = val-prec;
 7ec:	94 2f       	mov	r25, r20
 7ee:	95 1b       	sub	r25, r21
		if ((temp & 0x01) == 0x01)
		{
			odd_flag = 1;
		}
		//halfway value
		temp = prec + temp/2;
 7f0:	89 2f       	mov	r24, r25
 7f2:	97 fd       	sbrc	r25, 7
 7f4:	8f 5f       	subi	r24, 0xFF	; 255
 7f6:	85 95       	asr	r24
 7f8:	85 0f       	add	r24, r21
		//printf("halfway: %d, parity: %d\n", temp, odd_flag);
		//Is q less then halfway?
		if
		(
 7fa:	38 17       	cp	r19, r24
 7fc:	4c f0       	brlt	.+18     	; 0x810 <at_aarc8+0x84>
 7fe:	38 17       	cp	r19, r24
 800:	11 f4       	brne	.+4      	; 0x806 <at_aarc8+0x7a>
		//printf("prec val: %d\n",prec);
		//Calculate Halfway value
		temp = val-prec;
		//If odd the division will leave a rest (+0.5)
		odd_flag = 0;
		if ((temp & 0x01) == 0x01)
 802:	90 fd       	sbrc	r25, 0
 804:	05 c0       	rjmp	.+10     	; 0x810 <at_aarc8+0x84>
		else
		{
			//!!! it should not make much difference, but rounding this way make
			//the resulting table rounded closer to the original function
			//For low q i round up
			if (q < RD_ON_EQUAL_HALFWAY_QTH)
 806:	3d 35       	cpi	r19, 0x5D	; 93
 808:	1c f4       	brge	.+6      	; 0x810 <at_aarc8+0x84>
			{
				fi = t +1;
 80a:	82 2f       	mov	r24, r18
 80c:	8f 5f       	subi	r24, 0xFF	; 255
 80e:	08 95       	ret
			}
			//For high q iround down
			else
			{
				fi =t;
 810:	82 2f       	mov	r24, r18
 812:	08 95       	ret
	//If: the index value is equal to what i am searching?
	else
	{
		//are there multiple enrty in the lut?
		//fetch succ
		temp = READ_LUT_ARC8(t +1);
 814:	83 58       	subi	r24, 0x83	; 131
 816:	9f 4f       	sbci	r25, 0xFF	; 255
 818:	fc 01       	movw	r30, r24
 81a:	84 91       	lpm	r24, Z+
		//If there is at least 1 more entry
		if (temp == q)
 81c:	83 17       	cp	r24, r19
 81e:	19 f4       	brne	.+6      	; 0x826 <at_aarc8+0x9a>
		{
			//round up and account for the missing 0 in the lut
			fi = t +1 +1;
 820:	82 2f       	mov	r24, r18
 822:	8e 5f       	subi	r24, 0xFE	; 254
 824:	08 95       	ret
		}
		//
		else
		{
			//calculate angle
			fi = t +1;
 826:	82 2f       	mov	r24, r18
 828:	8f 5f       	subi	r24, 0xFF	; 255
	///	RETURN
	///--------------------------------------------------------------------------

	//
	return fi;
}	//end function: at_aarc8
 82a:	08 95       	ret

0000082c <at_asin8>:
**	+127	|	+aarc(127)
**
****************************************************************************/

extern int8_t at_asin8( int8_t q )
{
 82c:	1f 93       	push	r17

	///--------------------------------------------------------------------------
	///	CHECK AND INITIALIZATIONS
	///--------------------------------------------------------------------------

	if (q == -128)
 82e:	80 38       	cpi	r24, 0x80	; 128
 830:	59 f0       	breq	.+22     	; 0x848 <at_asin8+0x1c>
	///--------------------------------------------------------------------------
	///	BODY
	///--------------------------------------------------------------------------

	//asin is odd, if argument is <0
	if (q < 0)
 832:	87 fd       	sbrc	r24, 7
 834:	02 c0       	rjmp	.+4      	; 0x83a <at_asin8+0xe>
 836:	10 e0       	ldi	r17, 0x00	; 0
 838:	02 c0       	rjmp	.+4      	; 0x83e <at_asin8+0x12>
	{
		//make argument >0
		q = -q;
 83a:	81 95       	neg	r24
 83c:	11 e0       	ldi	r17, 0x01	; 1
		//invert sign of result
		sign_flag = 1;
	}
	//calculate angle
	fi = at_aarc8( q );
 83e:	0e 94 c6 03 	call	0x78c	; 0x78c <at_aarc8>
	//correct the sign
	if (sign_flag == 1)
 842:	11 30       	cpi	r17, 0x01	; 1
 844:	09 f4       	brne	.+2      	; 0x848 <at_asin8+0x1c>
	{
		fi = -fi;
 846:	81 95       	neg	r24
	///--------------------------------------------------------------------------
	///	RETURN
	///--------------------------------------------------------------------------

	return fi;
}	//End function: asin8
 848:	1f 91       	pop	r17
 84a:	08 95       	ret

0000084c <at_acos8>:
**	+127	|	64-aarc(127)	//0
**
****************************************************************************/

extern int8_t at_acos8( int8_t q )
{
 84c:	1f 93       	push	r17
 84e:	98 2f       	mov	r25, r24
	///--------------------------------------------------------------------------
	///	CHECK AND INITIALIZATIONS
	///--------------------------------------------------------------------------

	//return err in case of err or if the result would be 128 (+pi)
	if ((q == -128) || (q == -127))
 850:	80 58       	subi	r24, 0x80	; 128
 852:	82 30       	cpi	r24, 0x02	; 2
 854:	10 f4       	brcc	.+4      	; 0x85a <at_acos8+0xe>
 856:	80 e8       	ldi	r24, 0x80	; 128
 858:	10 c0       	rjmp	.+32     	; 0x87a <at_acos8+0x2e>
	///--------------------------------------------------------------------------
	///	BODY
	///--------------------------------------------------------------------------

	//acos is even, if argument is <0
	if (q < 0)
 85a:	97 fd       	sbrc	r25, 7
 85c:	02 c0       	rjmp	.+4      	; 0x862 <at_acos8+0x16>
 85e:	10 e0       	ldi	r17, 0x00	; 0
 860:	02 c0       	rjmp	.+4      	; 0x866 <at_acos8+0x1a>
	{
		//make argument >0
		q = -q;
 862:	91 95       	neg	r25
 864:	11 e0       	ldi	r17, 0x01	; 1
		//save the sign
		sign_flag = 1;
	}
	//fetch the arc value
	fi = at_aarc8( q );
 866:	89 2f       	mov	r24, r25
 868:	0e 94 c6 03 	call	0x78c	; 0x78c <at_aarc8>
 86c:	98 2f       	mov	r25, r24
	//Calculate the angle
	if (sign_flag == 0)
 86e:	11 23       	and	r17, r17
 870:	19 f4       	brne	.+6      	; 0x878 <at_acos8+0x2c>
	{
		fi = 64 -fi;
 872:	80 e4       	ldi	r24, 0x40	; 64
 874:	89 1b       	sub	r24, r25
 876:	01 c0       	rjmp	.+2      	; 0x87a <at_acos8+0x2e>
	}
	else
	{
		fi = 64 +fi;
 878:	80 5c       	subi	r24, 0xC0	; 192
	///--------------------------------------------------------------------------
	///	RETURN
	///--------------------------------------------------------------------------

	return fi;
}	//End function: acos8
 87a:	1f 91       	pop	r17
 87c:	08 95       	ret

0000087e <at_atan8>:
**	DESCRIPTION:
**	inverse tan function
****************************************************************************/

int8_t at_atan8( int8_t q )
{
 87e:	48 2f       	mov	r20, r24
	///--------------------------------------------------------------------------
	///	CHECK AND INITIALIZATIONS
	///--------------------------------------------------------------------------

	//If the input is error
	if (q == AT_ERR_ANGLE)
 880:	80 38       	cpi	r24, 0x80	; 128
 882:	11 f4       	brne	.+4      	; 0x888 <at_atan8+0xa>
 884:	80 e8       	ldi	r24, 0x80	; 128
 886:	08 95       	ret
	//	then apply rounding and correction

	///STEP0:
	//Sign correction, the function is odd
	//If: negative argument
	if (q < 0)
 888:	87 fd       	sbrc	r24, 7
 88a:	02 c0       	rjmp	.+4      	; 0x890 <at_atan8+0x12>
 88c:	50 e0       	ldi	r21, 0x00	; 0
 88e:	02 c0       	rjmp	.+4      	; 0x894 <at_atan8+0x16>
	{
		//correct sign
		q = -q;
 890:	41 95       	neg	r20
 892:	51 e0       	ldi	r21, 0x01	; 1
 894:	eb eb       	ldi	r30, 0xBB	; 187
 896:	f0 e0       	ldi	r31, 0x00	; 0
 898:	20 e0       	ldi	r18, 0x00	; 0
	//Search the first enfry in the lut bigger or equal then q
	//Reset while variabiles
	index = 0;
	//While:
	while
	(
 89a:	64 2f       	mov	r22, r20
 89c:	77 27       	eor	r23, r23
 89e:	67 fd       	sbrc	r22, 7
 8a0:	70 95       	com	r23
 8a2:	04 c0       	rjmp	.+8      	; 0x8ac <at_atan8+0x2e>
		(index < LUT_TAN8_SIZE) &&	//I have not reached the end of the LUT
		(READ_LUT_TAN8(index) < q)	//The current lut entry is smaller then q
	)
	{
		//
		index++;
 8a4:	2f 5f       	subi	r18, 0xFF	; 255
 8a6:	31 96       	adiw	r30, 0x01	; 1
	//Search the first enfry in the lut bigger or equal then q
	//Reset while variabiles
	index = 0;
	//While:
	while
	(
 8a8:	2f 31       	cpi	r18, 0x1F	; 31
 8aa:	29 f0       	breq	.+10     	; 0x8b6 <at_atan8+0x38>
		(index < LUT_TAN8_SIZE) &&	//I have not reached the end of the LUT
		(READ_LUT_TAN8(index) < q)	//The current lut entry is smaller then q
 8ac:	84 91       	lpm	r24, Z+
	//Search the first enfry in the lut bigger or equal then q
	//Reset while variabiles
	index = 0;
	//While:
	while
	(
 8ae:	90 e0       	ldi	r25, 0x00	; 0
 8b0:	86 17       	cp	r24, r22
 8b2:	97 07       	cpc	r25, r23
 8b4:	bc f3       	brlt	.-18     	; 0x8a4 <at_atan8+0x26>
	{
		//
		index++;
	}
	//Store current lut entry
	curr = READ_LUT_TAN8(index);
 8b6:	82 2f       	mov	r24, r18
 8b8:	99 27       	eor	r25, r25
 8ba:	87 fd       	sbrc	r24, 7
 8bc:	90 95       	com	r25
 8be:	fc 01       	movw	r30, r24
 8c0:	e5 54       	subi	r30, 0x45	; 69
 8c2:	ff 4f       	sbci	r31, 0xFF	; 255
 8c4:	34 91       	lpm	r19, Z+
	//If: my search found the last entry, but the entry value is lower then q
	if ( ( index == LUT_TAN8_SIZE ) && (curr < q) )
 8c6:	2f 31       	cpi	r18, 0x1F	; 31
 8c8:	19 f4       	brne	.+6      	; 0x8d0 <at_atan8+0x52>
 8ca:	34 17       	cp	r19, r20
 8cc:	0c f4       	brge	.+2      	; 0x8d0 <at_atan8+0x52>
 8ce:	3f e7       	ldi	r19, 0x7F	; 127
		curr = +127;
	}
	///STEP2:
	//Rounding. I need to round up or down the index based on the previous and prec entry value
	//If: lut entry is bigger than q (i may need to round down)
	if (curr > q)
 8d0:	43 17       	cp	r20, r19
 8d2:	b4 f4       	brge	.+44     	; 0x900 <__stack+0x1>
	{
		//store prec entry
		//if: i am in the first entry already
		if (index == 0)
 8d4:	22 23       	and	r18, r18
 8d6:	11 f4       	brne	.+4      	; 0x8dc <at_atan8+0x5e>
 8d8:	60 e0       	ldi	r22, 0x00	; 0
 8da:	04 c0       	rjmp	.+8      	; 0x8e4 <at_atan8+0x66>
			prec = 0;
		}
		//
		else
		{
			prec = READ_LUT_TAN8(index -1);
 8dc:	86 54       	subi	r24, 0x46	; 70
 8de:	9f 4f       	sbci	r25, 0xFF	; 255
 8e0:	fc 01       	movw	r30, r24
 8e2:	64 91       	lpm	r22, Z+
		}
		//Calculate halfway and reminder
		temp = curr-prec;
 8e4:	93 2f       	mov	r25, r19
 8e6:	96 1b       	sub	r25, r22
		if ((temp & 0x01) == 0x01)
		{
			odd_flag = 1;
		}
		//halfway value
		temp = prec + temp/2;
 8e8:	89 2f       	mov	r24, r25
 8ea:	97 fd       	sbrc	r25, 7
 8ec:	8f 5f       	subi	r24, 0xFF	; 255
 8ee:	85 95       	asr	r24
 8f0:	86 0f       	add	r24, r22
		//printf("halfway: %d, parity: %d\n", temp, odd_flag);
		//Is q less then halfway?
		if
		(
 8f2:	48 17       	cp	r20, r24
 8f4:	8c f0       	brlt	.+34     	; 0x918 <__stack+0x19>
 8f6:	48 17       	cp	r20, r24
 8f8:	61 f4       	brne	.+24     	; 0x912 <__stack+0x13>
		}
		//Calculate halfway and reminder
		temp = curr-prec;
		//If odd the division will leave a rest (+0.5)
		odd_flag = 0;
		if ((temp & 0x01) == 0x01)
 8fa:	90 ff       	sbrs	r25, 0
 8fc:	0a c0       	rjmp	.+20     	; 0x912 <__stack+0x13>
 8fe:	0c c0       	rjmp	.+24     	; 0x918 <__stack+0x19>
	//If: lut entry is equal to q (i may need to round up)
	else
	{
		//If: the next value is equal to the entry?
		//fetch succ
		temp = READ_LUT_TAN8(index +1);
 900:	84 54       	subi	r24, 0x44	; 68
 902:	9f 4f       	sbci	r25, 0xFF	; 255
 904:	fc 01       	movw	r30, r24
 906:	84 91       	lpm	r24, Z+
		//If there is at least 1 more entry
		if (temp == q)
 908:	84 17       	cp	r24, r20
 90a:	19 f4       	brne	.+6      	; 0x912 <__stack+0x13>
		{
			//round up (+1),lut start from 1° entry (+1)
			fi = index +1 +1;
 90c:	82 2f       	mov	r24, r18
 90e:	8e 5f       	subi	r24, 0xFE	; 254
 910:	04 c0       	rjmp	.+8      	; 0x91a <__stack+0x1b>
		}
		//
		else
		{
			//no rounding (+0), lut start from 1° entry (+1)
			fi = index +0 +1;
 912:	82 2f       	mov	r24, r18
 914:	8f 5f       	subi	r24, 0xFF	; 255
 916:	01 c0       	rjmp	.+2      	; 0x91a <__stack+0x1b>
 918:	82 2f       	mov	r24, r18
		}
	}
	///STEP3:
	//Sign correction
	//If
	if (sign_flag == 1)
 91a:	51 30       	cpi	r21, 0x01	; 1
 91c:	09 f4       	brne	.+2      	; 0x920 <__stack+0x21>
	{
		fi = -fi;
 91e:	81 95       	neg	r24
	///--------------------------------------------------------------------------
	///	RETURN
	///--------------------------------------------------------------------------

	return fi;
}	//end function: atan8
 920:	08 95       	ret

00000922 <at_atan8_2>:
**	-	|	+	| -fi
**	-	|	-	| -180°+fi
****************************************************************************/

uint8_t at_atan8_2( int8_t x, int8_t y )
{
 922:	1f 93       	push	r17
	///--------------------------------------------------------------------------

	///STEP 0:
	//make x and y positive and save their sign
	//If: negative
	if (x < 0)
 924:	87 fd       	sbrc	r24, 7
 926:	02 c0       	rjmp	.+4      	; 0x92c <at_atan8_2+0xa>
 928:	10 e0       	ldi	r17, 0x00	; 0
 92a:	02 c0       	rjmp	.+4      	; 0x930 <at_atan8_2+0xe>
	{
		//make it positive
		x = -x;
 92c:	81 95       	neg	r24
 92e:	11 e0       	ldi	r17, 0x01	; 1
		//save sign
		flags = flags | 0x01;
	}
	//If: negative
	if (y < 0)
 930:	67 ff       	sbrs	r22, 7
 932:	02 c0       	rjmp	.+4      	; 0x938 <at_atan8_2+0x16>
	{
		//make it positive
		y = -y;
 934:	61 95       	neg	r22
		//save sign
		flags = flags | 0x02;
 936:	12 60       	ori	r17, 0x02	; 2
	}
	//printf("x:%3d,y:%3d,flags:%3x\n",x,y,flags);
	///STEP1:
	//Setup the division variabiles so thet num/den <= 1
	//x and y are postive now, i can store in uint variabiles
	if (y > x)
 938:	86 17       	cp	r24, r22
 93a:	24 f4       	brge	.+8      	; 0x944 <at_atan8_2+0x22>
	{
		//store num and den
		num = x;
 93c:	98 2f       	mov	r25, r24
		den = y;
 93e:	46 2f       	mov	r20, r22
		//division flag
		flags = flags | 0x04;
 940:	14 60       	ori	r17, 0x04	; 4
 942:	02 c0       	rjmp	.+4      	; 0x948 <at_atan8_2+0x26>
	}
	else
	{
		//store num and den
		num = y;
 944:	96 2f       	mov	r25, r22
		den = x;
 946:	48 2f       	mov	r20, r24
	}
	//printf("num:%3d, den:%3d\n",num, den);
	///STEP2:
	//Calculate the division
	//Special cases
	if (num == 0)
 948:	99 23       	and	r25, r25
 94a:	11 f4       	brne	.+4      	; 0x950 <at_atan8_2+0x2e>
 94c:	60 e0       	ldi	r22, 0x00	; 0
 94e:	17 c0       	rjmp	.+46     	; 0x97e <at_atan8_2+0x5c>
	{
		div = 0;
	}
	else if (num == den)
 950:	94 17       	cp	r25, r20
 952:	11 f4       	brne	.+4      	; 0x958 <at_atan8_2+0x36>
 954:	6f e7       	ldi	r22, 0x7F	; 127
 956:	13 c0       	rjmp	.+38     	; 0x97e <at_atan8_2+0x5c>
	}
	else
	{
		//I have to perform ((127*num)/den) (1.0 = 127)
		//calculate 127*num
		tmp = (uint16_t)0 + ((uint8_t)127 * (uint8_t)num);
 958:	2f e7       	ldi	r18, 0x7F	; 127
 95a:	92 9f       	mul	r25, r18
 95c:	90 01       	movw	r18, r0
 95e:	11 24       	eor	r1, r1
		//divide and save the result
		div = (uint8_t)0 + (uint16_t)tmp / (uint8_t)den;
 960:	c9 01       	movw	r24, r18
 962:	64 2f       	mov	r22, r20
 964:	70 e0       	ldi	r23, 0x00	; 0
 966:	0e 94 02 07 	call	0xe04	; 0xe04 <__udivmodhi4>
		//now i have to round the result, i calculate the th of tmp that would trigger a round up
		tmp1 = (uint16_t)0 + den*div + den/2;
		//if tmp is bigger then the threshold i round up
		if (tmp > tmp1)
 96a:	64 9f       	mul	r22, r20
 96c:	c0 01       	movw	r24, r0
 96e:	11 24       	eor	r1, r1
 970:	46 95       	lsr	r20
 972:	84 0f       	add	r24, r20
 974:	91 1d       	adc	r25, r1
 976:	82 17       	cp	r24, r18
 978:	93 07       	cpc	r25, r19
 97a:	08 f4       	brcc	.+2      	; 0x97e <at_atan8_2+0x5c>
		{
			//round up the result
			div++;
 97c:	6f 5f       	subi	r22, 0xFF	; 255
		}
	}
	//printf("div:%3d\n",div);
	///STEP3:
	//calculate the arctan of the division
	fi = at_atan8( div );
 97e:	86 2f       	mov	r24, r22
 980:	0e 94 3f 04 	call	0x87e	; 0x87e <at_atan8>
 984:	28 2f       	mov	r18, r24
	//printf("fi:%3d\n",fi);
	///STEP4:
	//correct the division flag (if rised fi = 90°-fi
	if ((flags & 0x04) == 0x04)
 986:	41 2f       	mov	r20, r17
 988:	50 e0       	ldi	r21, 0x00	; 0
 98a:	12 ff       	sbrs	r17, 2
 98c:	03 c0       	rjmp	.+6      	; 0x994 <at_atan8_2+0x72>
	{
		fi = AT_PI2 -fi;
 98e:	80 e4       	ldi	r24, 0x40	; 64
 990:	82 1b       	sub	r24, r18
 992:	28 2f       	mov	r18, r24
	}
	//printf("fi:%3d\n");
	///STEP5:
	//correct the x,y signs
	//If: +x, +y
	if ((flags & 0x03) == 0x00)
 994:	ca 01       	movw	r24, r20
 996:	83 70       	andi	r24, 0x03	; 3
 998:	90 70       	andi	r25, 0x00	; 0
 99a:	00 97       	sbiw	r24, 0x00	; 0
 99c:	81 f0       	breq	.+32     	; 0x9be <at_atan8_2+0x9c>
	{
		//printf("+x +y\n");
		//do nothing
	}
	//If: -x, +y
	else if ((flags & 0x03) == 0x01)
 99e:	81 30       	cpi	r24, 0x01	; 1
 9a0:	91 05       	cpc	r25, r1
 9a2:	31 f4       	brne	.+12     	; 0x9b0 <at_atan8_2+0x8e>
	{
		//printf("-x +y\n");
		//if the result would not be 180°
		if (fi != 0)
 9a4:	22 23       	and	r18, r18
 9a6:	69 f0       	breq	.+26     	; 0x9c2 <at_atan8_2+0xa0>
		{
			//unpack 128 as 127 +1
			fi = 127 - fi +1;
 9a8:	80 e8       	ldi	r24, 0x80	; 128
 9aa:	82 1b       	sub	r24, r18
 9ac:	28 2f       	mov	r18, r24
 9ae:	07 c0       	rjmp	.+14     	; 0x9be <at_atan8_2+0x9c>
			//180° is an error angle
			return AT_ERR_ANGLE;
		}
	}
	//If: +x, -y
	else if ((flags & 0x03) == 0x02)
 9b0:	02 97       	sbiw	r24, 0x02	; 2
 9b2:	11 f4       	brne	.+4      	; 0x9b8 <at_atan8_2+0x96>
	{
		//printf("+x -y\n");
		fi = -fi;
 9b4:	21 95       	neg	r18
 9b6:	03 c0       	rjmp	.+6      	; 0x9be <at_atan8_2+0x9c>
	//If: -x, -y
	else if ((flags & 0x03) == 0x03)
	{
		//printf("-x -y\n");
		//if the result would not be -180°
		if (fi != 0)
 9b8:	22 23       	and	r18, r18
 9ba:	19 f0       	breq	.+6      	; 0x9c2 <at_atan8_2+0xa0>
		{
			//unpack -128 as -127 -1
			fi = -127 + fi -1;
 9bc:	20 58       	subi	r18, 0x80	; 128

	///--------------------------------------------------------------------------
	///	RETURN
	///--------------------------------------------------------------------------

	return fi;
 9be:	82 2f       	mov	r24, r18
 9c0:	01 c0       	rjmp	.+2      	; 0x9c4 <at_atan8_2+0xa2>
 9c2:	80 e8       	ldi	r24, 0x80	; 128
}	//end function:	at_atan8_2
 9c4:	1f 91       	pop	r17
 9c6:	08 95       	ret

000009c8 <send_cmd>:
	//***********************************************************************
	//	This routine is used to send a command, the routine execute different
	//	operation if compiled for 8bit operation or 4bit operation

	//Rise the LCD busy flag
	lcd_busy_flag = 0x01;
 9c8:	91 e0       	ldi	r25, 0x01	; 1
 9ca:	90 93 27 01 	sts	0x0127, r25
			temp = temp & 0xf0;
			temp = temp | (nh);
			LCD_PORT = temp;
		#else
			//send the high nibble
			temp = LCD_PORT;
 9ce:	98 b1       	in	r25, 0x08	; 8
			temp = temp & 0x0f;
			temp = temp | (nh << 4);
 9d0:	28 2f       	mov	r18, r24
 9d2:	20 7f       	andi	r18, 0xF0	; 240
 9d4:	9f 70       	andi	r25, 0x0F	; 15
 9d6:	29 2b       	or	r18, r25
			LCD_PORT = temp;
 9d8:	28 b9       	out	0x08, r18	; 8
		#endif

		//set the rs signal: i'm using the istruction register
		CLEAR_RS();
 9da:	43 98       	cbi	0x08, 3	; 8

		//Strobe the enable pin, time specify the delay after each edge
		STROBE_EN( 200.0 );
 9dc:	42 9a       	sbi	0x08, 2	; 8
 9de:	28 ee       	ldi	r18, 0xE8	; 232
 9e0:	33 e0       	ldi	r19, 0x03	; 3
 9e2:	f9 01       	movw	r30, r18
 9e4:	31 97       	sbiw	r30, 0x01	; 1
 9e6:	f1 f7       	brne	.-4      	; 0x9e4 <send_cmd+0x1c>
 9e8:	42 98       	cbi	0x08, 2	; 8
 9ea:	f9 01       	movw	r30, r18
 9ec:	31 97       	sbiw	r30, 0x01	; 1
 9ee:	f1 f7       	brne	.-4      	; 0x9ec <send_cmd+0x24>
			temp = temp & 0xf0;
			temp = temp | (nl);
			LCD_PORT = temp;
		#else
			//send the high nibble
			temp = LCD_PORT;
 9f0:	98 b1       	in	r25, 0x08	; 8
			temp = temp & 0x0f;
			temp = temp | (nl << 4);
 9f2:	82 95       	swap	r24
 9f4:	80 7f       	andi	r24, 0xF0	; 240
 9f6:	9f 70       	andi	r25, 0x0F	; 15
 9f8:	98 2b       	or	r25, r24
			LCD_PORT = temp;
 9fa:	98 b9       	out	0x08, r25	; 8
		#endif

		//Strobe the enable pin, time specify the delay after each edge
		STROBE_EN( 200.0 );
 9fc:	42 9a       	sbi	0x08, 2	; 8
 9fe:	c9 01       	movw	r24, r18
 a00:	01 97       	sbiw	r24, 0x01	; 1
 a02:	f1 f7       	brne	.-4      	; 0xa00 <send_cmd+0x38>
 a04:	42 98       	cbi	0x08, 2	; 8
 a06:	c9 01       	movw	r24, r18
 a08:	01 97       	sbiw	r24, 0x01	; 1
 a0a:	f1 f7       	brne	.-4      	; 0xa08 <send_cmd+0x40>
	//***********************************************************************
	//	RETURN
	//***********************************************************************

	return;
}
 a0c:	80 e1       	ldi	r24, 0x10	; 16
 a0e:	97 e2       	ldi	r25, 0x27	; 39
 a10:	01 97       	sbiw	r24, 0x01	; 1
 a12:	f1 f7       	brne	.-4      	; 0xa10 <send_cmd+0x48>
 a14:	08 95       	ret

00000a16 <display_initialisation>:
	//4 bit mode is used
	#ifdef MODE_4BIT

		//init the display in 4bit mode, i have to send the high part as low part
		//to first configure the 4bit mode
		send_cmd( INIT_4B2L58F >> 4 );
 a16:	82 e0       	ldi	r24, 0x02	; 2
 a18:	0e 94 e4 04 	call	0x9c8	; 0x9c8 <send_cmd>

		//re-init the display in 4 bit mode ( pervious bit have been ignored )
		send_cmd( INIT_4B2L58F );
 a1c:	88 e2       	ldi	r24, 0x28	; 40
 a1e:	0e 94 e4 04 	call	0x9c8	; 0x9c8 <send_cmd>
	
		//clear display
		send_cmd( DISPLAY_CLEAR );
 a22:	81 e0       	ldi	r24, 0x01	; 1
 a24:	0e 94 e4 04 	call	0x9c8	; 0x9c8 <send_cmd>
	
		//engage display and cursor
		send_cmd( DISPLAY_ON_CURSOR );
 a28:	8e e0       	ldi	r24, 0x0E	; 14
 a2a:	0e 94 e4 04 	call	0x9c8	; 0x9c8 <send_cmd>
	//***********************************************************************
	//	RETURN
	//***********************************************************************

	return;
}
 a2e:	08 95       	ret

00000a30 <display_update>:
	///**************************************************************************
	//	>if buffer >2 byte: start


	//idle
	if (status.exe == 0)
 a30:	20 91 28 01 	lds	r18, 0x0128
 a34:	82 2f       	mov	r24, r18
 a36:	80 7f       	andi	r24, 0xF0	; 240
 a38:	81 f5       	brne	.+96     	; 0xa9a <display_update+0x6a>
	{
		//If i have at least one complete command inside the buffer
		if ( LCD_BUFFER_NUMELEM() >= 2 )
 a3a:	80 91 26 01 	lds	r24, 0x0126
 a3e:	e0 91 25 01 	lds	r30, 0x0125
 a42:	48 2f       	mov	r20, r24
 a44:	50 e0       	ldi	r21, 0x00	; 0
 a46:	2e 2f       	mov	r18, r30
 a48:	30 e0       	ldi	r19, 0x00	; 0
 a4a:	e8 17       	cp	r30, r24
 a4c:	38 f4       	brcc	.+14     	; 0xa5c <display_update+0x2c>
 a4e:	42 1b       	sub	r20, r18
 a50:	53 0b       	sbc	r21, r19
 a52:	42 30       	cpi	r20, 0x02	; 2
 a54:	51 05       	cpc	r21, r1
 a56:	0c f4       	brge	.+2      	; 0xa5a <display_update+0x2a>
 a58:	7f c0       	rjmp	.+254    	; 0xb58 <display_update+0x128>
 a5a:	06 c0       	rjmp	.+12     	; 0xa68 <display_update+0x38>
 a5c:	24 1b       	sub	r18, r20
 a5e:	35 0b       	sbc	r19, r21
 a60:	22 30       	cpi	r18, 0x02	; 2
 a62:	31 05       	cpc	r19, r1
 a64:	0c f4       	brge	.+2      	; 0xa68 <display_update+0x38>
 a66:	78 c0       	rjmp	.+240    	; 0xb58 <display_update+0x128>
		{
			//Read the address
			tmp8 = LCD_BUFFER_PEEK();
 a68:	f0 e0       	ldi	r31, 0x00	; 0
 a6a:	eb 5a       	subi	r30, 0xAB	; 171
 a6c:	fe 4f       	sbci	r31, 0xFE	; 254
 a6e:	e0 81       	ld	r30, Z
			//If the address is equal to the pervious one +1, i can avoid sending the address again
			if (last_address == (tmp8 +1 ) )
 a70:	20 91 23 01 	lds	r18, 0x0123
 a74:	30 e0       	ldi	r19, 0x00	; 0
 a76:	8e 2f       	mov	r24, r30
 a78:	90 e0       	ldi	r25, 0x00	; 0
 a7a:	01 96       	adiw	r24, 0x01	; 1
 a7c:	40 91 28 01 	lds	r20, 0x0128
 a80:	28 17       	cp	r18, r24
 a82:	39 07       	cpc	r19, r25
 a84:	19 f4       	brne	.+6      	; 0xa8c <display_update+0x5c>
			{
				//Jump to the data send
				status.exe = 5;
 a86:	4f 70       	andi	r20, 0x0F	; 15
 a88:	40 65       	ori	r20, 0x50	; 80
 a8a:	02 c0       	rjmp	.+4      	; 0xa90 <display_update+0x60>
			}
			else
			{
				//start the send operation from the address send
				status.exe = 1;
 a8c:	4f 70       	andi	r20, 0x0F	; 15
 a8e:	40 61       	ori	r20, 0x10	; 16
 a90:	40 93 28 01 	sts	0x0128, r20
			}
			
			//save last address
			last_address = tmp8;
 a94:	e0 93 23 01 	sts	0x0123, r30
 a98:	08 95       	ret
		}
	}

	//Send AH
	//Rise EN
	else if (status.exe == 1)
 a9a:	80 31       	cpi	r24, 0x10	; 16
 a9c:	11 f4       	brne	.+4      	; 0xaa2 <display_update+0x72>
	{
		CLEAR_BIT( RS_PORT, RS_PIN );
 a9e:	43 98       	cbi	0x08, 3	; 8
 aa0:	1f c0       	rjmp	.+62     	; 0xae0 <display_update+0xb0>
		SET_BIT( EN_PORT, EN_PIN );
		//jump
		status.exe++;		
	}
	//Clear EN (strobe)
	else if (status.exe == 2)
 aa2:	80 32       	cpi	r24, 0x20	; 32
 aa4:	11 f4       	brne	.+4      	; 0xaaa <display_update+0x7a>
	{
		CLEAR_BIT( RS_PORT, RS_PIN );
 aa6:	43 98       	cbi	0x08, 3	; 8
 aa8:	26 c0       	rjmp	.+76     	; 0xaf6 <display_update+0xc6>
		//jump
		status.exe++;
	}
	//Send AL
	//Rise EN
	else if (status.exe == 3)
 aaa:	80 33       	cpi	r24, 0x30	; 48
 aac:	11 f4       	brne	.+4      	; 0xab2 <display_update+0x82>
	{
		CLEAR_BIT( RS_PORT, RS_PIN );
 aae:	43 98       	cbi	0x08, 3	; 8
 ab0:	27 c0       	rjmp	.+78     	; 0xb00 <display_update+0xd0>
		SET_BIT( EN_PORT, EN_PIN );
		//jump
		status.exe++;		
	}
	//Clear EN (strobe)
	else if (status.exe == 4)
 ab2:	80 34       	cpi	r24, 0x40	; 64
 ab4:	91 f4       	brne	.+36     	; 0xada <display_update+0xaa>
	{
		CLEAR_BIT( RS_PORT, RS_PIN );
 ab6:	43 98       	cbi	0x08, 3	; 8
		//clear EN
		CLEAR_BIT( EN_PORT, EN_PIN );
 ab8:	42 98       	cbi	0x08, 2	; 8

		LCD_BUFFER_KICK();
 aba:	80 91 25 01 	lds	r24, 0x0125
 abe:	8f 31       	cpi	r24, 0x1F	; 31
 ac0:	20 f4       	brcc	.+8      	; 0xaca <display_update+0x9a>
 ac2:	8f 5f       	subi	r24, 0xFF	; 255
 ac4:	80 93 25 01 	sts	0x0125, r24
 ac8:	02 c0       	rjmp	.+4      	; 0xace <display_update+0x9e>
 aca:	10 92 25 01 	sts	0x0125, r1
		//jump
		status.exe++;
 ace:	80 91 28 01 	lds	r24, 0x0128
 ad2:	80 5f       	subi	r24, 0xF0	; 240
 ad4:	80 93 28 01 	sts	0x0128, r24
 ad8:	08 95       	ret
	}
	//Send DH
	//Rise EN
	else if (status.exe == 5)
 ada:	80 35       	cpi	r24, 0x50	; 80
 adc:	49 f4       	brne	.+18     	; 0xaf0 <display_update+0xc0>
	{
		SET_BIT( RS_PORT, RS_PIN );
 ade:	43 9a       	sbi	0x08, 3	; 8
		//fetch the low part of the port
		tmp8 = LCD_PORT & 0x0f;
 ae0:	88 b1       	in	r24, 0x08	; 8
		//load the hi nibble to the hi part of the port
		tmp8 = tmp8 | (LCD_BUFFER_PEEK() & 0xf0);
 ae2:	e0 91 25 01 	lds	r30, 0x0125
 ae6:	f0 e0       	ldi	r31, 0x00	; 0
 ae8:	eb 5a       	subi	r30, 0xAB	; 171
 aea:	fe 4f       	sbci	r31, 0xFE	; 254
 aec:	90 81       	ld	r25, Z
 aee:	10 c0       	rjmp	.+32     	; 0xb10 <display_update+0xe0>
		SET_BIT( EN_PORT, EN_PIN );
		//jump
		status.exe++;		
	}
	//Clear EN (strobe)
	else if (status.exe == 6)
 af0:	80 36       	cpi	r24, 0x60	; 96
 af2:	19 f4       	brne	.+6      	; 0xafa <display_update+0xca>
	{
		SET_BIT( RS_PORT, RS_PIN );
 af4:	43 9a       	sbi	0x08, 3	; 8
		//clear EN
		CLEAR_BIT( EN_PORT, EN_PIN );
 af6:	42 98       	cbi	0x08, 2	; 8
 af8:	10 c0       	rjmp	.+32     	; 0xb1a <display_update+0xea>
		//jump
		status.exe++;
	}
	//Send DL
	//Rise EN
	else if (status.exe == 7)
 afa:	80 37       	cpi	r24, 0x70	; 112
 afc:	91 f4       	brne	.+36     	; 0xb22 <display_update+0xf2>
	{
		SET_BIT( RS_PORT, RS_PIN );
 afe:	43 9a       	sbi	0x08, 3	; 8
		//fetch the low part of the port
		tmp8 = LCD_PORT & 0x0f;
 b00:	88 b1       	in	r24, 0x08	; 8
		//load the hi nibble to the hi part of the port
		tmp8 = tmp8 | ((LCD_BUFFER_PEEK() & 0x0f) << 4);
 b02:	e0 91 25 01 	lds	r30, 0x0125
 b06:	f0 e0       	ldi	r31, 0x00	; 0
 b08:	eb 5a       	subi	r30, 0xAB	; 171
 b0a:	fe 4f       	sbci	r31, 0xFE	; 254
 b0c:	90 81       	ld	r25, Z
 b0e:	92 95       	swap	r25
 b10:	90 7f       	andi	r25, 0xF0	; 240
 b12:	8f 70       	andi	r24, 0x0F	; 15
 b14:	98 2b       	or	r25, r24
		//write back
		LCD_PORT = tmp8;
 b16:	98 b9       	out	0x08, r25	; 8
		//Rise the EN
		SET_BIT( EN_PORT, EN_PIN );
 b18:	42 9a       	sbi	0x08, 2	; 8
		//jump
		status.exe++;		
 b1a:	20 5f       	subi	r18, 0xF0	; 240
 b1c:	20 93 28 01 	sts	0x0128, r18
 b20:	08 95       	ret
	}
	//Clear EN (strobe)
	else if (status.exe == 8)
 b22:	80 38       	cpi	r24, 0x80	; 128
 b24:	c9 f4       	brne	.+50     	; 0xb58 <display_update+0x128>
	{
		SET_BIT( RS_PORT, RS_PIN );
 b26:	43 9a       	sbi	0x08, 3	; 8
		//clear EN
		CLEAR_BIT( EN_PORT, EN_PIN );
 b28:	42 98       	cbi	0x08, 2	; 8

		LCD_BUFFER_KICK();
 b2a:	80 91 25 01 	lds	r24, 0x0125
 b2e:	8f 31       	cpi	r24, 0x1F	; 31
 b30:	20 f4       	brcc	.+8      	; 0xb3a <display_update+0x10a>
 b32:	8f 5f       	subi	r24, 0xFF	; 255
 b34:	80 93 25 01 	sts	0x0125, r24
 b38:	02 c0       	rjmp	.+4      	; 0xb3e <display_update+0x10e>
 b3a:	10 92 25 01 	sts	0x0125, r1
		//jump
		status.exe = 0;
 b3e:	80 91 28 01 	lds	r24, 0x0128
 b42:	8f 70       	andi	r24, 0x0F	; 15
 b44:	80 93 28 01 	sts	0x0128, r24
		//If all command are executed
		if (LCD_BUFFER_NUMELEM() == 0)
 b48:	90 91 26 01 	lds	r25, 0x0126
 b4c:	80 91 25 01 	lds	r24, 0x0125
 b50:	98 17       	cp	r25, r24
 b52:	11 f4       	brne	.+4      	; 0xb58 <display_update+0x128>
		{
			//Clear the LCD busy flag
			lcd_busy_flag = 0x00;
 b54:	10 92 27 01 	sts	0x0127, r1
 b58:	08 95       	ret

00000b5a <print_char>:
**	Put a charter in the execution buffer of the display
****************************************************************************/

//Print a char on screen
void print_char( uint8_t row, uint8_t col, uint8_t data )
{
 b5a:	98 2f       	mov	r25, r24

	///**************************************************************************
	///	PARAMETER CHECK
	///**************************************************************************

	if ( (row > 1) || (col > 31) )
 b5c:	82 30       	cpi	r24, 0x02	; 2
 b5e:	48 f5       	brcc	.+82     	; 0xbb2 <print_char+0x58>
 b60:	60 32       	cpi	r22, 0x20	; 32
 b62:	38 f5       	brcc	.+78     	; 0xbb2 <print_char+0x58>
	///**************************************************************************
	///	ALGORITHM
	///**************************************************************************

	//Rise the LCD busy flag
	lcd_busy_flag = 0x01;
 b64:	81 e0       	ldi	r24, 0x01	; 1
 b66:	80 93 27 01 	sts	0x0127, r24

	address = MASK(7) | (row << 6) | col;

	LCD_BUFFER_PUSH( address );
 b6a:	80 91 26 01 	lds	r24, 0x0126
 b6e:	e8 2f       	mov	r30, r24
 b70:	f0 e0       	ldi	r31, 0x00	; 0
 b72:	eb 5a       	subi	r30, 0xAB	; 171
 b74:	fe 4f       	sbci	r31, 0xFE	; 254
 b76:	60 68       	ori	r22, 0x80	; 128
 b78:	92 95       	swap	r25
 b7a:	99 0f       	add	r25, r25
 b7c:	99 0f       	add	r25, r25
 b7e:	90 7c       	andi	r25, 0xC0	; 192
 b80:	96 2b       	or	r25, r22
 b82:	90 83       	st	Z, r25
 b84:	8f 31       	cpi	r24, 0x1F	; 31
 b86:	20 f4       	brcc	.+8      	; 0xb90 <print_char+0x36>
 b88:	8f 5f       	subi	r24, 0xFF	; 255
 b8a:	80 93 26 01 	sts	0x0126, r24
 b8e:	02 c0       	rjmp	.+4      	; 0xb94 <print_char+0x3a>
 b90:	10 92 26 01 	sts	0x0126, r1
	LCD_BUFFER_PUSH( data );
 b94:	80 91 26 01 	lds	r24, 0x0126
 b98:	e8 2f       	mov	r30, r24
 b9a:	f0 e0       	ldi	r31, 0x00	; 0
 b9c:	eb 5a       	subi	r30, 0xAB	; 171
 b9e:	fe 4f       	sbci	r31, 0xFE	; 254
 ba0:	40 83       	st	Z, r20
 ba2:	8f 31       	cpi	r24, 0x1F	; 31
 ba4:	20 f4       	brcc	.+8      	; 0xbae <print_char+0x54>
 ba6:	8f 5f       	subi	r24, 0xFF	; 255
 ba8:	80 93 26 01 	sts	0x0126, r24
 bac:	08 95       	ret
 bae:	10 92 26 01 	sts	0x0126, r1
 bb2:	08 95       	ret

00000bb4 <print_str>:
*****************************************************************************
**	Print a string starting from row, col
****************************************************************************/

void print_str( uint8_t row, uint8_t col, uint8_t *str )
{
 bb4:	df 92       	push	r13
 bb6:	ef 92       	push	r14
 bb8:	ff 92       	push	r15
 bba:	0f 93       	push	r16
 bbc:	1f 93       	push	r17
 bbe:	cf 93       	push	r28
 bc0:	df 93       	push	r29
 bc2:	d8 2e       	mov	r13, r24
 bc4:	06 2f       	mov	r16, r22
 bc6:	ea 01       	movw	r28, r20

	//***********************************************************************
	//	PARAMETER CHECK
	//***********************************************************************

	if ( (str == NULL)|| (row > 1) || (col > 15) )
 bc8:	41 15       	cp	r20, r1
 bca:	51 05       	cpc	r21, r1
 bcc:	d9 f0       	breq	.+54     	; 0xc04 <print_str+0x50>
 bce:	81 e0       	ldi	r24, 0x01	; 1
 bd0:	8d 15       	cp	r24, r13
 bd2:	c0 f0       	brcs	.+48     	; 0xc04 <print_str+0x50>
 bd4:	60 31       	cpi	r22, 0x10	; 16
 bd6:	b0 f4       	brcc	.+44     	; 0xc04 <print_str+0x50>
 bd8:	10 e0       	ldi	r17, 0x00	; 0
	//	MAIN
	//***********************************************************************

	//Initialise
	t = 0;
	while ( ((col +t) <= 16) && (str[ t ] != '\0') )
 bda:	e6 2e       	mov	r14, r22
 bdc:	ff 24       	eor	r15, r15
 bde:	06 c0       	rjmp	.+12     	; 0xbec <print_str+0x38>
	{
		
		print_char( row, (col +t), str[ t ] );
 be0:	61 2f       	mov	r22, r17
 be2:	60 0f       	add	r22, r16
 be4:	8d 2d       	mov	r24, r13
 be6:	0e 94 ad 05 	call	0xb5a	; 0xb5a <print_char>

		t++;
 bea:	1f 5f       	subi	r17, 0xFF	; 255
	//	MAIN
	//***********************************************************************

	//Initialise
	t = 0;
	while ( ((col +t) <= 16) && (str[ t ] != '\0') )
 bec:	e1 2f       	mov	r30, r17
 bee:	f0 e0       	ldi	r31, 0x00	; 0
 bf0:	cf 01       	movw	r24, r30
 bf2:	8e 0d       	add	r24, r14
 bf4:	9f 1d       	adc	r25, r15
 bf6:	41 97       	sbiw	r24, 0x11	; 17
 bf8:	2c f4       	brge	.+10     	; 0xc04 <print_str+0x50>
 bfa:	ec 0f       	add	r30, r28
 bfc:	fd 1f       	adc	r31, r29
 bfe:	40 81       	ld	r20, Z
 c00:	44 23       	and	r20, r20
 c02:	71 f7       	brne	.-36     	; 0xbe0 <print_str+0x2c>
	//***********************************************************************
	//	RETURN
	//***********************************************************************

	return;
}
 c04:	df 91       	pop	r29
 c06:	cf 91       	pop	r28
 c08:	1f 91       	pop	r17
 c0a:	0f 91       	pop	r16
 c0c:	ff 90       	pop	r15
 c0e:	ef 90       	pop	r14
 c10:	df 90       	pop	r13
 c12:	08 95       	ret

00000c14 <print_int8>:
**	point: position of the point
**	size: size of the number, will blank unused char
****************************************************************************/

uint8_t print_int8( uint8_t row, uint8_t col, uint8_t point, uint8_t size, int8_t num )
{
 c14:	af 92       	push	r10
 c16:	bf 92       	push	r11
 c18:	cf 92       	push	r12
 c1a:	df 92       	push	r13
 c1c:	ef 92       	push	r14
 c1e:	ff 92       	push	r15
 c20:	0f 93       	push	r16
 c22:	1f 93       	push	r17
 c24:	cf 93       	push	r28
 c26:	df 93       	push	r29
 c28:	e8 2e       	mov	r14, r24
 c2a:	d6 2e       	mov	r13, r22
 c2c:	b4 2e       	mov	r11, r20
 c2e:	c2 2e       	mov	r12, r18
 c30:	f0 2e       	mov	r15, r16

	//***************************************************************************
	//	PARAMETER CHECK
	//***************************************************************************

	if ( (row > 1) || (col > 15) )
 c32:	81 e0       	ldi	r24, 0x01	; 1
 c34:	8e 15       	cp	r24, r14
 c36:	08 f4       	brcc	.+2      	; 0xc3a <print_int8+0x26>
 c38:	4f c0       	rjmp	.+158    	; 0xcd8 <print_int8+0xc4>
 c3a:	8f e0       	ldi	r24, 0x0F	; 15
 c3c:	86 17       	cp	r24, r22
 c3e:	08 f4       	brcc	.+2      	; 0xc42 <print_int8+0x2e>
 c40:	4b c0       	rjmp	.+150    	; 0xcd8 <print_int8+0xc4>
	//	>allocate the string
	//	>fill the string with terminator
	//	>

	//if the number is negative, put a negative sign
	if (num < 0)
 c42:	07 ff       	sbrs	r16, 7
 c44:	0b c0       	rjmp	.+22     	; 0xc5c <print_int8+0x48>
	{
		print_char( row, col, '-');
 c46:	8e 2d       	mov	r24, r14
 c48:	4d e2       	ldi	r20, 0x2D	; 45
 c4a:	0e 94 ad 05 	call	0xb5a	; 0xb5a <print_char>
 c4e:	11 e0       	ldi	r17, 0x01	; 1
 c50:	81 e0       	ldi	r24, 0x01	; 1
 c52:	c3 e0       	ldi	r28, 0x03	; 3
 c54:	d0 e0       	ldi	r29, 0x00	; 0
		if ( (blank_flag == 0x01) && (temp == '0') && ( (index+1) > point)  )
		{
			//do nothing
		}
		//I have reached the point position
		else if ( (index+1) == point)
 c56:	ab 2c       	mov	r10, r11
 c58:	bb 24       	eor	r11, r11
 c5a:	2b c0       	rjmp	.+86     	; 0xcb2 <print_int8+0x9e>
		pos++;
	}
	else
	{
		//i make all number negative because the negative range is bigger
		num = -num;
 c5c:	f1 94       	neg	r15
 c5e:	10 e0       	ldi	r17, 0x00	; 0
 c60:	f7 cf       	rjmp	.-18     	; 0xc50 <print_int8+0x3c>
**	point: position of the point
**	size: size of the number, will blank unused char
****************************************************************************/

uint8_t print_int8( uint8_t row, uint8_t col, uint8_t point, uint8_t size, int8_t num )
{
 c62:	fe 1a       	sub	r15, r30
		while ( num <= base[ index ] )
		{
			//decrease the number by the base
			num = num - base[ index ];
			//increase the char
			temp++;
 c64:	0f 5f       	subi	r16, 0xFF	; 255
	for (index = 3 -1;index >= 0;index--)
	{
		//preset the position with an ASCII 0
		temp = '0';
		//until the number is higher than the base
		while ( num <= base[ index ] )
 c66:	ef 15       	cp	r30, r15
 c68:	e4 f7       	brge	.-8      	; 0xc62 <print_int8+0x4e>
		}	//end while the number is higher than the base
		//Stop blanking when:
		//	>chipher is not '0'
		//	>i have not reached the least significant digit
		//	>i have not pass the point
		if ( (blank_flag == 0x01) && (temp == '0') && ( (index+1) > point)  )
 c6a:	81 30       	cpi	r24, 0x01	; 1
 c6c:	29 f4       	brne	.+10     	; 0xc78 <print_int8+0x64>
 c6e:	00 33       	cpi	r16, 0x30	; 48
 c70:	19 f4       	brne	.+6      	; 0xc78 <print_int8+0x64>
 c72:	2a 15       	cp	r18, r10
 c74:	3b 05       	cpc	r19, r11
 c76:	bc f4       	brge	.+46     	; 0xca6 <print_int8+0x92>
 c78:	61 2f       	mov	r22, r17
 c7a:	6d 0d       	add	r22, r13
 c7c:	1f 5f       	subi	r17, 0xFF	; 255
		{
			//do nothing
		}
		//I have reached the point position
		else if ( (index+1) == point)
 c7e:	ca 15       	cp	r28, r10
 c80:	db 05       	cpc	r29, r11
 c82:	61 f4       	brne	.+24     	; 0xc9c <print_int8+0x88>
		{
			//Print point
			print_char( row, col +pos, '.' );
 c84:	8e 2d       	mov	r24, r14
 c86:	4e e2       	ldi	r20, 0x2E	; 46
 c88:	0e 94 ad 05 	call	0xb5a	; 0xb5a <print_char>
			//Next pos
			pos++;						
			//Print chipher
			print_char( row, col +pos, temp );
 c8c:	61 2f       	mov	r22, r17
 c8e:	6d 0d       	add	r22, r13
 c90:	8e 2d       	mov	r24, r14
 c92:	40 2f       	mov	r20, r16
 c94:	0e 94 ad 05 	call	0xb5a	; 0xb5a <print_char>
			//Next pos
			pos++;
 c98:	1f 5f       	subi	r17, 0xFF	; 255
 c9a:	04 c0       	rjmp	.+8      	; 0xca4 <print_int8+0x90>
		}
		//write back the char and advance to the next position
		else
		{
			//Print chipher
			print_char( row, col +pos, temp );
 c9c:	8e 2d       	mov	r24, r14
 c9e:	40 2f       	mov	r20, r16
 ca0:	0e 94 ad 05 	call	0xb5a	; 0xb5a <print_char>
			//Next pos
			pos++;
 ca4:	80 e0       	ldi	r24, 0x00	; 0
 ca6:	21 97       	sbiw	r28, 0x01	; 1
	{
		//i make all number negative because the negative range is bigger
		num = -num;
	}
	//for any base
	for (index = 3 -1;index >= 0;index--)
 ca8:	cc 23       	and	r28, r28
 caa:	19 f4       	brne	.+6      	; 0xcb2 <print_int8+0x9e>
 cac:	01 2f       	mov	r16, r17
 cae:	0d 0d       	add	r16, r13
 cb0:	10 c0       	rjmp	.+32     	; 0xcd2 <print_int8+0xbe>
 cb2:	9e 01       	movw	r18, r28
 cb4:	21 50       	subi	r18, 0x01	; 1
 cb6:	30 40       	sbci	r19, 0x00	; 0
	{
		//preset the position with an ASCII 0
		temp = '0';
		//until the number is higher than the base
		while ( num <= base[ index ] )
 cb8:	fe 01       	movw	r30, r28
 cba:	e1 5e       	subi	r30, 0xE1	; 225
 cbc:	fe 4f       	sbci	r31, 0xFE	; 254
 cbe:	e0 81       	ld	r30, Z
		{
			//decrease the number by the base
			num = num - base[ index ];
 cc0:	00 e3       	ldi	r16, 0x30	; 48
 cc2:	d1 cf       	rjmp	.-94     	; 0xc66 <print_int8+0x52>
	//Add padding space at the bottom of the number to cover older entry
	//while: i have not reached the given padding size
	while (pos < size)
	{
		//print padding
		print_char( row, col +pos, ' ' );
 cc4:	8e 2d       	mov	r24, r14
 cc6:	60 2f       	mov	r22, r16
 cc8:	40 e2       	ldi	r20, 0x20	; 32
 cca:	0e 94 ad 05 	call	0xb5a	; 0xb5a <print_char>
		//next position
		pos++;
 cce:	1f 5f       	subi	r17, 0xFF	; 255
 cd0:	0f 5f       	subi	r16, 0xFF	; 255
			blank_flag = 0x00;
		}
	}	//end for any base
	//Add padding space at the bottom of the number to cover older entry
	//while: i have not reached the given padding size
	while (pos < size)
 cd2:	1c 15       	cp	r17, r12
 cd4:	b8 f3       	brcs	.-18     	; 0xcc4 <print_int8+0xb0>
 cd6:	01 c0       	rjmp	.+2      	; 0xcda <print_int8+0xc6>
 cd8:	10 e0       	ldi	r17, 0x00	; 0
	//***************************************************************************
	//	RETURN
	//***************************************************************************

	return pos;
}	//end function: print int8
 cda:	81 2f       	mov	r24, r17
 cdc:	df 91       	pop	r29
 cde:	cf 91       	pop	r28
 ce0:	1f 91       	pop	r17
 ce2:	0f 91       	pop	r16
 ce4:	ff 90       	pop	r15
 ce6:	ef 90       	pop	r14
 ce8:	df 90       	pop	r13
 cea:	cf 90       	pop	r12
 cec:	bf 90       	pop	r11
 cee:	af 90       	pop	r10
 cf0:	08 95       	ret

00000cf2 <print_int16>:
**	The user has to clean up charter if necessary (example if one write
**	-123 and then 0, the display will show 0123, the user must clean the 123 part).
****************************************************************************/

uint8_t print_int16( uint8_t row, uint8_t col, uint8_t point, uint8_t size, int16_t num )
{
 cf2:	6f 92       	push	r6
 cf4:	7f 92       	push	r7
 cf6:	8f 92       	push	r8
 cf8:	9f 92       	push	r9
 cfa:	af 92       	push	r10
 cfc:	bf 92       	push	r11
 cfe:	cf 92       	push	r12
 d00:	df 92       	push	r13
 d02:	ef 92       	push	r14
 d04:	ff 92       	push	r15
 d06:	0f 93       	push	r16
 d08:	1f 93       	push	r17
 d0a:	cf 93       	push	r28
 d0c:	df 93       	push	r29
 d0e:	98 2e       	mov	r9, r24
 d10:	c6 2e       	mov	r12, r22
 d12:	d4 2e       	mov	r13, r20
 d14:	82 2e       	mov	r8, r18
 d16:	78 01       	movw	r14, r16

	//***************************************************************************
	//	PARAMETER CHECK
	//***************************************************************************

	if ( (row > 1) || (col > 15) )
 d18:	81 e0       	ldi	r24, 0x01	; 1
 d1a:	89 15       	cp	r24, r9
 d1c:	08 f4       	brcc	.+2      	; 0xd20 <print_int16+0x2e>
 d1e:	62 c0       	rjmp	.+196    	; 0xde4 <print_int16+0xf2>
 d20:	9f e0       	ldi	r25, 0x0F	; 15
 d22:	96 17       	cp	r25, r22
 d24:	08 f4       	brcc	.+2      	; 0xd28 <print_int16+0x36>
 d26:	5e c0       	rjmp	.+188    	; 0xde4 <print_int16+0xf2>
	//	>allocate the string
	//	>fill the string with terminator
	//	>

	//if the number is negative, put a negative sign
	if (num < 0)
 d28:	17 ff       	sbrs	r17, 7
 d2a:	06 c0       	rjmp	.+12     	; 0xd38 <print_int16+0x46>
	{
		print_char( row, col, '-');
 d2c:	89 2d       	mov	r24, r9
 d2e:	4d e2       	ldi	r20, 0x2D	; 45
 d30:	0e 94 ad 05 	call	0xb5a	; 0xb5a <print_char>
		col++;
 d34:	c3 94       	inc	r12
 d36:	04 c0       	rjmp	.+8      	; 0xd40 <print_int16+0x4e>
	}
	else
	{
		//i make all number negative because the negative range is bigger
		num = -num;
 d38:	f0 94       	com	r15
 d3a:	e1 94       	neg	r14
 d3c:	f1 08       	sbc	r15, r1
 d3e:	f3 94       	inc	r15
 d40:	3e e1       	ldi	r19, 0x1E	; 30
 d42:	a3 2e       	mov	r10, r19
 d44:	31 e0       	ldi	r19, 0x01	; 1
 d46:	b3 2e       	mov	r11, r19
 d48:	00 e0       	ldi	r16, 0x00	; 0
 d4a:	41 e0       	ldi	r20, 0x01	; 1
 d4c:	c5 e0       	ldi	r28, 0x05	; 5
 d4e:	d0 e0       	ldi	r29, 0x00	; 0
		if ( (blank_flag == 0x01) && (temp == '0') && ( (index+1) > point)  )
		{
			//do nothing
		}
		//I have reached the point position
		else if ( (index+1) == point)
 d50:	6d 2c       	mov	r6, r13
 d52:	77 24       	eor	r7, r7
 d54:	31 c0       	rjmp	.+98     	; 0xdb8 <print_int16+0xc6>
**	The user has to clean up charter if necessary (example if one write
**	-123 and then 0, the display will show 0123, the user must clean the 123 part).
****************************************************************************/

uint8_t print_int16( uint8_t row, uint8_t col, uint8_t point, uint8_t size, int16_t num )
{
 d56:	e2 0e       	add	r14, r18
 d58:	f3 1e       	adc	r15, r19
		while ( num <= base[ index ] )
		{
			//decrease the number by the base
			num = num - base[ index ];
			//increase the char
			temp++;
 d5a:	d3 94       	inc	r13
	for (index = 5 -1;index >= 0;index--)
	{
	//preset the position with an ASCII 0
		temp = '0';
		//until the number is higher than the base
		while ( num <= base[ index ] )
 d5c:	8e 15       	cp	r24, r14
 d5e:	9f 05       	cpc	r25, r15
 d60:	d4 f7       	brge	.-12     	; 0xd56 <print_int16+0x64>
		}	//end while the number is higher than the base
		//Stop blanking when:
		//	>chipher is not '0'
		//	>i have not reached the least significant digit
		//	>i have not pass the point
		if ( (blank_flag == 0x01) && (temp == '0') && ( (index+1) > point)  )
 d62:	41 30       	cpi	r20, 0x01	; 1
 d64:	31 f4       	brne	.+12     	; 0xd72 <print_int16+0x80>
 d66:	e0 e3       	ldi	r30, 0x30	; 48
 d68:	de 16       	cp	r13, r30
 d6a:	19 f4       	brne	.+6      	; 0xd72 <print_int16+0x80>
 d6c:	66 15       	cp	r22, r6
 d6e:	77 05       	cpc	r23, r7
 d70:	cc f4       	brge	.+50     	; 0xda4 <print_int16+0xb2>
 d72:	60 2f       	mov	r22, r16
 d74:	6c 0d       	add	r22, r12
 d76:	10 2f       	mov	r17, r16
 d78:	1f 5f       	subi	r17, 0xFF	; 255
		{
			//do nothing
		}
		//I have reached the point position
		else if ( (index+1) == point)
 d7a:	c6 15       	cp	r28, r6
 d7c:	d7 05       	cpc	r29, r7
 d7e:	61 f4       	brne	.+24     	; 0xd98 <print_int16+0xa6>
		{
			//Print point
			print_char( row, col +pos, '.' );
 d80:	89 2d       	mov	r24, r9
 d82:	4e e2       	ldi	r20, 0x2E	; 46
 d84:	0e 94 ad 05 	call	0xb5a	; 0xb5a <print_char>
			//Next pos
			pos++;						
			//Print chipher
			print_char( row, col +pos, temp );
 d88:	61 2f       	mov	r22, r17
 d8a:	6c 0d       	add	r22, r12
 d8c:	89 2d       	mov	r24, r9
 d8e:	4d 2d       	mov	r20, r13
 d90:	0e 94 ad 05 	call	0xb5a	; 0xb5a <print_char>
			//Next pos
			pos++;
 d94:	0e 5f       	subi	r16, 0xFE	; 254
 d96:	05 c0       	rjmp	.+10     	; 0xda2 <print_int16+0xb0>
		}
		//write back the char and advance to the next position
		else
		{
			//Print chipher
			print_char( row, col +pos, temp );
 d98:	89 2d       	mov	r24, r9
 d9a:	4d 2d       	mov	r20, r13
 d9c:	0e 94 ad 05 	call	0xb5a	; 0xb5a <print_char>
			//Next pos
			pos++;
 da0:	01 2f       	mov	r16, r17
 da2:	40 e0       	ldi	r20, 0x00	; 0
 da4:	8e ef       	ldi	r24, 0xFE	; 254
 da6:	9f ef       	ldi	r25, 0xFF	; 255
 da8:	a8 0e       	add	r10, r24
 daa:	b9 1e       	adc	r11, r25
 dac:	21 97       	sbiw	r28, 0x01	; 1
		//i make all number negative because the negative range is bigger
		num = -num;
	}

	//for any base
	for (index = 5 -1;index >= 0;index--)
 dae:	cc 23       	and	r28, r28
 db0:	19 f4       	brne	.+6      	; 0xdb8 <print_int16+0xc6>
 db2:	10 2f       	mov	r17, r16
 db4:	1c 0d       	add	r17, r12
 db6:	14 c0       	rjmp	.+40     	; 0xde0 <print_int16+0xee>
 db8:	be 01       	movw	r22, r28
 dba:	61 50       	subi	r22, 0x01	; 1
 dbc:	70 40       	sbci	r23, 0x00	; 0
	{
	//preset the position with an ASCII 0
		temp = '0';
		//until the number is higher than the base
		while ( num <= base[ index ] )
 dbe:	f5 01       	movw	r30, r10
 dc0:	80 81       	ld	r24, Z
 dc2:	91 81       	ldd	r25, Z+1	; 0x01
 dc4:	20 e3       	ldi	r18, 0x30	; 48
 dc6:	d2 2e       	mov	r13, r18
**	The user has to clean up charter if necessary (example if one write
**	-123 and then 0, the display will show 0123, the user must clean the 123 part).
****************************************************************************/

uint8_t print_int16( uint8_t row, uint8_t col, uint8_t point, uint8_t size, int16_t num )
{
 dc8:	22 27       	eor	r18, r18
 dca:	33 27       	eor	r19, r19
 dcc:	28 1b       	sub	r18, r24
 dce:	39 0b       	sbc	r19, r25
 dd0:	c5 cf       	rjmp	.-118    	; 0xd5c <print_int16+0x6a>
	//Add padding space at the bottom of the number to cover older entry
	//while: i have not reached the given padding size
	while (pos < size)
	{
		//print padding
		print_char( row, col +pos, ' ' );
 dd2:	89 2d       	mov	r24, r9
 dd4:	61 2f       	mov	r22, r17
 dd6:	40 e2       	ldi	r20, 0x20	; 32
 dd8:	0e 94 ad 05 	call	0xb5a	; 0xb5a <print_char>
		//next position
		pos++;
 ddc:	0f 5f       	subi	r16, 0xFF	; 255
 dde:	1f 5f       	subi	r17, 0xFF	; 255
			blank_flag = 0x00;
		}
	}	//end for any base
	//Add padding space at the bottom of the number to cover older entry
	//while: i have not reached the given padding size
	while (pos < size)
 de0:	08 15       	cp	r16, r8
 de2:	b8 f3       	brcs	.-18     	; 0xdd2 <print_int16+0xe0>
	//***************************************************************************
	//	RETURN
	//***************************************************************************

	return col;
}	//end function: print int16
 de4:	8c 2d       	mov	r24, r12
 de6:	df 91       	pop	r29
 de8:	cf 91       	pop	r28
 dea:	1f 91       	pop	r17
 dec:	0f 91       	pop	r16
 dee:	ff 90       	pop	r15
 df0:	ef 90       	pop	r14
 df2:	df 90       	pop	r13
 df4:	cf 90       	pop	r12
 df6:	bf 90       	pop	r11
 df8:	af 90       	pop	r10
 dfa:	9f 90       	pop	r9
 dfc:	8f 90       	pop	r8
 dfe:	7f 90       	pop	r7
 e00:	6f 90       	pop	r6
 e02:	08 95       	ret

00000e04 <__udivmodhi4>:
 e04:	aa 1b       	sub	r26, r26
 e06:	bb 1b       	sub	r27, r27
 e08:	51 e1       	ldi	r21, 0x11	; 17
 e0a:	07 c0       	rjmp	.+14     	; 0xe1a <__udivmodhi4_ep>

00000e0c <__udivmodhi4_loop>:
 e0c:	aa 1f       	adc	r26, r26
 e0e:	bb 1f       	adc	r27, r27
 e10:	a6 17       	cp	r26, r22
 e12:	b7 07       	cpc	r27, r23
 e14:	10 f0       	brcs	.+4      	; 0xe1a <__udivmodhi4_ep>
 e16:	a6 1b       	sub	r26, r22
 e18:	b7 0b       	sbc	r27, r23

00000e1a <__udivmodhi4_ep>:
 e1a:	88 1f       	adc	r24, r24
 e1c:	99 1f       	adc	r25, r25
 e1e:	5a 95       	dec	r21
 e20:	a9 f7       	brne	.-22     	; 0xe0c <__udivmodhi4_loop>
 e22:	80 95       	com	r24
 e24:	90 95       	com	r25
 e26:	bc 01       	movw	r22, r24
 e28:	cd 01       	movw	r24, r26
 e2a:	08 95       	ret

00000e2c <__divmodhi4>:
 e2c:	97 fb       	bst	r25, 7
 e2e:	09 2e       	mov	r0, r25
 e30:	07 26       	eor	r0, r23
 e32:	0a d0       	rcall	.+20     	; 0xe48 <__divmodhi4_neg1>
 e34:	77 fd       	sbrc	r23, 7
 e36:	04 d0       	rcall	.+8      	; 0xe40 <__divmodhi4_neg2>
 e38:	e5 df       	rcall	.-54     	; 0xe04 <__udivmodhi4>
 e3a:	06 d0       	rcall	.+12     	; 0xe48 <__divmodhi4_neg1>
 e3c:	00 20       	and	r0, r0
 e3e:	1a f4       	brpl	.+6      	; 0xe46 <__divmodhi4_exit>

00000e40 <__divmodhi4_neg2>:
 e40:	70 95       	com	r23
 e42:	61 95       	neg	r22
 e44:	7f 4f       	sbci	r23, 0xFF	; 255

00000e46 <__divmodhi4_exit>:
 e46:	08 95       	ret

00000e48 <__divmodhi4_neg1>:
 e48:	f6 f7       	brtc	.-4      	; 0xe46 <__divmodhi4_exit>
 e4a:	90 95       	com	r25
 e4c:	81 95       	neg	r24
 e4e:	9f 4f       	sbci	r25, 0xFF	; 255
 e50:	08 95       	ret

00000e52 <_exit>:
 e52:	f8 94       	cli

00000e54 <__stop_program>:
 e54:	ff cf       	rjmp	.-2      	; 0xe54 <__stop_program>
